
/home/wlf-solar/.cache/arduino/sketches/B7AFD4C07D375922A038B814B242E3F4/firmware.ino.elf:     file format elf32-avr


Disassembly of section .text:

00000000 <__vectors>:
__vectors():
../../../../../crt1/gcrt1.S:63
       0:	6d c0       	rjmp	.+218    	; 0xdc <__ctors_end>
../../../../../crt1/gcrt1.S:67
       2:	9d c0       	rjmp	.+314    	; 0x13e <__bad_interrupt>
../../../../../crt1/gcrt1.S:68
       4:	9c c0       	rjmp	.+312    	; 0x13e <__bad_interrupt>
../../../../../crt1/gcrt1.S:69
       6:	4f c8       	rjmp	.-3938   	; 0xfffff0a6 <__eeprom_end+0xff7ef0a6>
../../../../../crt1/gcrt1.S:70
       8:	9a c0       	rjmp	.+308    	; 0x13e <__bad_interrupt>
../../../../../crt1/gcrt1.S:71
       a:	99 c0       	rjmp	.+306    	; 0x13e <__bad_interrupt>
../../../../../crt1/gcrt1.S:72
       c:	98 c0       	rjmp	.+304    	; 0x13e <__bad_interrupt>
../../../../../crt1/gcrt1.S:73
       e:	4d c7       	rjmp	.+3738   	; 0xeaa <__vector_7>
../../../../../crt1/gcrt1.S:74
      10:	96 c0       	rjmp	.+300    	; 0x13e <__bad_interrupt>
../../../../../crt1/gcrt1.S:75
      12:	95 c0       	rjmp	.+298    	; 0x13e <__bad_interrupt>
../../../../../crt1/gcrt1.S:76
      14:	94 c0       	rjmp	.+296    	; 0x13e <__bad_interrupt>
../../../../../crt1/gcrt1.S:77
      16:	93 c0       	rjmp	.+294    	; 0x13e <__bad_interrupt>
../../../../../crt1/gcrt1.S:78
      18:	92 c0       	rjmp	.+292    	; 0x13e <__bad_interrupt>
../../../../../crt1/gcrt1.S:79
      1a:	91 c0       	rjmp	.+290    	; 0x13e <__bad_interrupt>
../../../../../crt1/gcrt1.S:80
      1c:	c2 c6       	rjmp	.+3460   	; 0xda2 <__vector_14>
../../../../../crt1/gcrt1.S:81
      1e:	8f c0       	rjmp	.+286    	; 0x13e <__bad_interrupt>
../../../../../crt1/gcrt1.S:82
      20:	8e c0       	rjmp	.+284    	; 0x13e <__bad_interrupt>
../../../../../crt1/gcrt1.S:83
      22:	ee c6       	rjmp	.+3548   	; 0xe00 <__vector_17>
../../../../../crt1/gcrt1.S:84
      24:	ed c6       	rjmp	.+3546   	; 0xe00 <__vector_17>
../../../../../crt1/gcrt1.S:85
      26:	8b c0       	rjmp	.+278    	; 0x13e <__bad_interrupt>
../../../../../crt1/gcrt1.S:86
      28:	8a c0       	rjmp	.+276    	; 0x13e <__bad_interrupt>
../../../../../crt1/gcrt1.S:87
      2a:	89 c0       	rjmp	.+274    	; 0x13e <__bad_interrupt>
../../../../../crt1/gcrt1.S:88
      2c:	88 c0       	rjmp	.+272    	; 0x13e <__bad_interrupt>
../../../../../crt1/gcrt1.S:89
      2e:	87 c0       	rjmp	.+270    	; 0x13e <__bad_interrupt>
../../../../../crt1/gcrt1.S:90
      30:	86 c0       	rjmp	.+268    	; 0x13e <__bad_interrupt>
../../../../../crt1/gcrt1.S:91
      32:	85 c0       	rjmp	.+266    	; 0x13e <__bad_interrupt>

00000034 <__trampolines_end>:
__trampolines_start():
      34:	04 01       	movw	r0, r8
      36:	01 01       	movw	r0, r2
      38:	00 05       	cpc	r16, r0
      3a:	00 00       	nop
      3c:	00 00       	nop
      3e:	00 05       	cpc	r16, r0
      40:	01 00       	.word	0x0001	; ????
      42:	00 00       	nop
      44:	00 03       	mulsu	r16, r16
      46:	00 01       	movw	r0, r0
      48:	01 04       	cpc	r0, r1
      4a:	00 01       	movw	r0, r0
      4c:	00 01       	movw	r0, r0
      4e:	05 00       	.word	0x0005	; ????
      50:	00 00       	nop
      52:	00 00       	nop
      54:	03 01       	movw	r0, r6
      56:	00 01       	movw	r0, r0
      58:	05 01       	movw	r0, r10
      5a:	01 01       	movw	r0, r2
	...

0000005e <SPIN_LEDS_RIGHT>:
      5e:	0a 09 11 10 0f 0e 0d 0c 0b                          .........

00000067 <SPIN_LEDS_LEFT>:
      67:	07 08 00 01 02 03 04 05 06                          .........

00000070 <RICKROLL_SEQ>:
      70:	02 00 01 01 01 04 01 01 01 00 01 01 03 01 00 01     ................
      80:	03 00 00 01 03 00 00 00 02 00 01 02 00 01 02 01     ................
      90:	00 03 00 00 01 02 01 01 04 01 01 01 00 01 01 04     ................
      a0:	00 01 00 00 03 00 00 00 03 01 01 00 04 01 00 00     ................
      b0:	01                                                  .

000000b1 <INFINITI_LEDS>:
      b1:	07 08 00 01 02 03 04 05 06 0a 09 11 10 0f 0e 0d     ................
      c1:	0c 0b                                               ..

000000c3 <KNIGHT_RIDER_LEDS>:
      c3:	02 ff 01 03 00 04 08 05 06 07 07 0a 0b 09 0c 11     ................
      d3:	0d 10 0e 0f 0f ff 00                                .......

000000da <__ctors_start>:
__ctors_start():
      da:	1d 0f       	add	r17, r29

000000dc <__ctors_end>:
__dtors_end():
../../../../../crt1/gcrt1.S:230
      dc:	11 24       	eor	r1, r1
../../../../../crt1/gcrt1.S:231
      de:	1f be       	out	0x3f, r1	; 63
../../../../../crt1/gcrt1.S:232
      e0:	cf ef       	ldi	r28, 0xFF	; 255
../../../../../crt1/gcrt1.S:234
      e2:	cd bf       	out	0x3d, r28	; 61
../../../../../crt1/gcrt1.S:236
      e4:	df e3       	ldi	r29, 0x3F	; 63
../../../../../crt1/gcrt1.S:237
      e6:	de bf       	out	0x3e, r29	; 62

000000e8 <_initThreeStuff()>:
_Z15_initThreeStuffv():
/home/wlf-solar/.arduino15/packages/megaTinyCore/hardware/megaavr/2.6.11/cores/megatinycore/main.cpp:104

  /* Minimum: Reset if we wound up here through malfunction - this relies on user clearing the  *
   * register on startup, which is rarely done in Arduino land.                                 */
  void __attribute__((weak)) init_reset_flags() ;
  void __attribute__((weak)) init_reset_flags() {
    uint8_t flags = RSTCTRL.RSTFR;
      e8:	80 91 40 00 	lds	r24, 0x0040	; 0x800040 <digital_pin_to_bit_mask+0x7f6054>
/home/wlf-solar/.arduino15/packages/megaTinyCore/hardware/megaavr/2.6.11/cores/megatinycore/main.cpp:105
    RSTCTRL.RSTFR = flags;
      ec:	80 93 40 00 	sts	0x0040, r24	; 0x800040 <digital_pin_to_bit_mask+0x7f6054>
/home/wlf-solar/.arduino15/packages/megaTinyCore/hardware/megaavr/2.6.11/cores/megatinycore/main.cpp:106
    if (flags == 0) {
      f0:	81 11       	cpse	r24, r1
      f2:	05 c0       	rjmp	.+10     	; 0xfe <_initThreeStuff()+0x16>
/home/wlf-solar/.arduino15/packages/megaTinyCore/hardware/megaavr/2.6.11/cores/megatinycore/main.cpp:107
      _PROTECTED_WRITE(RSTCTRL.SWRR, 1);
      f4:	98 ed       	ldi	r25, 0xD8	; 216
      f6:	21 e0       	ldi	r18, 0x01	; 1
      f8:	94 bf       	out	0x34, r25	; 52
      fa:	20 93 41 00 	sts	0x0041, r18	; 0x800041 <digital_pin_to_bit_mask+0x7f6055>
/home/wlf-solar/.arduino15/packages/megaTinyCore/hardware/megaavr/2.6.11/cores/megatinycore/main.cpp:109
    }
    GPIOR0 = flags;
      fe:	8c bb       	out	0x1c, r24	; 28

00000100 <__do_copy_data>:
__do_copy_data():
/home/admin/Arduino/toolchain-avr-special-master/gcc-build/avr/avrxmega3/short-calls/libgcc/../../../../../gcc/libgcc/config/avr/lib1funcs.S:2409
     100:	1e e3       	ldi	r17, 0x3E	; 62
/home/admin/Arduino/toolchain-avr-special-master/gcc-build/avr/avrxmega3/short-calls/libgcc/../../../../../gcc/libgcc/config/avr/lib1funcs.S:2410
     102:	a0 e0       	ldi	r26, 0x00	; 0
/home/admin/Arduino/toolchain-avr-special-master/gcc-build/avr/avrxmega3/short-calls/libgcc/../../../../../gcc/libgcc/config/avr/lib1funcs.S:2411
     104:	be e3       	ldi	r27, 0x3E	; 62
/home/admin/Arduino/toolchain-avr-special-master/gcc-build/avr/avrxmega3/short-calls/libgcc/../../../../../gcc/libgcc/config/avr/lib1funcs.S:2412
     106:	e8 ef       	ldi	r30, 0xF8	; 248
/home/admin/Arduino/toolchain-avr-special-master/gcc-build/avr/avrxmega3/short-calls/libgcc/../../../../../gcc/libgcc/config/avr/lib1funcs.S:2413
     108:	ff e1       	ldi	r31, 0x1F	; 31
/home/admin/Arduino/toolchain-avr-special-master/gcc-build/avr/avrxmega3/short-calls/libgcc/../../../../../gcc/libgcc/config/avr/lib1funcs.S:2414
     10a:	02 c0       	rjmp	.+4      	; 0x110 <__do_copy_data+0x10>
/home/admin/Arduino/toolchain-avr-special-master/gcc-build/avr/avrxmega3/short-calls/libgcc/../../../../../gcc/libgcc/config/avr/lib1funcs.S:2417
     10c:	05 90       	lpm	r0, Z+
/home/admin/Arduino/toolchain-avr-special-master/gcc-build/avr/avrxmega3/short-calls/libgcc/../../../../../gcc/libgcc/config/avr/lib1funcs.S:2422
     10e:	0d 92       	st	X+, r0
/home/admin/Arduino/toolchain-avr-special-master/gcc-build/avr/avrxmega3/short-calls/libgcc/../../../../../gcc/libgcc/config/avr/lib1funcs.S:2424
     110:	a2 30       	cpi	r26, 0x02	; 2
/home/admin/Arduino/toolchain-avr-special-master/gcc-build/avr/avrxmega3/short-calls/libgcc/../../../../../gcc/libgcc/config/avr/lib1funcs.S:2425
     112:	b1 07       	cpc	r27, r17
/home/admin/Arduino/toolchain-avr-special-master/gcc-build/avr/avrxmega3/short-calls/libgcc/../../../../../gcc/libgcc/config/avr/lib1funcs.S:2426
     114:	d9 f7       	brne	.-10     	; 0x10c <__do_copy_data+0xc>

00000116 <__do_clear_bss>:
__do_clear_bss():
/home/admin/Arduino/toolchain-avr-special-master/gcc-build/avr/avrxmega3/short-calls/libgcc/../../../../../gcc/libgcc/config/avr/lib1funcs.S:2441
     116:	2e e3       	ldi	r18, 0x3E	; 62
/home/admin/Arduino/toolchain-avr-special-master/gcc-build/avr/avrxmega3/short-calls/libgcc/../../../../../gcc/libgcc/config/avr/lib1funcs.S:2442
     118:	a2 e0       	ldi	r26, 0x02	; 2
/home/admin/Arduino/toolchain-avr-special-master/gcc-build/avr/avrxmega3/short-calls/libgcc/../../../../../gcc/libgcc/config/avr/lib1funcs.S:2443
     11a:	be e3       	ldi	r27, 0x3E	; 62
/home/admin/Arduino/toolchain-avr-special-master/gcc-build/avr/avrxmega3/short-calls/libgcc/../../../../../gcc/libgcc/config/avr/lib1funcs.S:2444
     11c:	01 c0       	rjmp	.+2      	; 0x120 <.do_clear_bss_start>

0000011e <.do_clear_bss_loop>:
/home/admin/Arduino/toolchain-avr-special-master/gcc-build/avr/avrxmega3/short-calls/libgcc/../../../../../gcc/libgcc/config/avr/lib1funcs.S:2446
     11e:	1d 92       	st	X+, r1

00000120 <.do_clear_bss_start>:
/home/admin/Arduino/toolchain-avr-special-master/gcc-build/avr/avrxmega3/short-calls/libgcc/../../../../../gcc/libgcc/config/avr/lib1funcs.S:2448
     120:	a0 3f       	cpi	r26, 0xF0	; 240
/home/admin/Arduino/toolchain-avr-special-master/gcc-build/avr/avrxmega3/short-calls/libgcc/../../../../../gcc/libgcc/config/avr/lib1funcs.S:2449
     122:	b2 07       	cpc	r27, r18
/home/admin/Arduino/toolchain-avr-special-master/gcc-build/avr/avrxmega3/short-calls/libgcc/../../../../../gcc/libgcc/config/avr/lib1funcs.S:2450
     124:	e1 f7       	brne	.-8      	; 0x11e <.do_clear_bss_loop>

00000126 <__do_global_ctors>:
__do_global_ctors():
/home/admin/Arduino/toolchain-avr-special-master/gcc-build/avr/avrxmega3/short-calls/libgcc/../../../../../gcc/libgcc/config/avr/lib1funcs.S:2466
     126:	10 e0       	ldi	r17, 0x00	; 0
/home/admin/Arduino/toolchain-avr-special-master/gcc-build/avr/avrxmega3/short-calls/libgcc/../../../../../gcc/libgcc/config/avr/lib1funcs.S:2467
     128:	ce e6       	ldi	r28, 0x6E	; 110
/home/admin/Arduino/toolchain-avr-special-master/gcc-build/avr/avrxmega3/short-calls/libgcc/../../../../../gcc/libgcc/config/avr/lib1funcs.S:2468
     12a:	d0 e0       	ldi	r29, 0x00	; 0
/home/admin/Arduino/toolchain-avr-special-master/gcc-build/avr/avrxmega3/short-calls/libgcc/../../../../../gcc/libgcc/config/avr/lib1funcs.S:2472
     12c:	03 c0       	rjmp	.+6      	; 0x134 <__do_global_ctors+0xe>
/home/admin/Arduino/toolchain-avr-special-master/gcc-build/avr/avrxmega3/short-calls/libgcc/../../../../../gcc/libgcc/config/avr/lib1funcs.S:2474
     12e:	21 97       	sbiw	r28, 0x01	; 1
/home/admin/Arduino/toolchain-avr-special-master/gcc-build/avr/avrxmega3/short-calls/libgcc/../../../../../gcc/libgcc/config/avr/lib1funcs.S:2480
     130:	fe 01       	movw	r30, r28
/home/admin/Arduino/toolchain-avr-special-master/gcc-build/avr/avrxmega3/short-calls/libgcc/../../../../../gcc/libgcc/config/avr/lib1funcs.S:2481
     132:	24 df       	rcall	.-440    	; 0xffffff7c <__eeprom_end+0xff7eff7c>
/home/admin/Arduino/toolchain-avr-special-master/gcc-build/avr/avrxmega3/short-calls/libgcc/../../../../../gcc/libgcc/config/avr/lib1funcs.S:2483
     134:	cd 36       	cpi	r28, 0x6D	; 109
/home/admin/Arduino/toolchain-avr-special-master/gcc-build/avr/avrxmega3/short-calls/libgcc/../../../../../gcc/libgcc/config/avr/lib1funcs.S:2484
     136:	d1 07       	cpc	r29, r17
/home/admin/Arduino/toolchain-avr-special-master/gcc-build/avr/avrxmega3/short-calls/libgcc/../../../../../gcc/libgcc/config/avr/lib1funcs.S:2489
     138:	d1 f7       	brne	.-12     	; 0x12e <__do_global_ctors+0x8>
../../../../../crt1/gcrt1.S:314
     13a:	d0 d7       	rcall	.+4000   	; 0x10dc <main>
../../../../../crt1/gcrt1.S:315
     13c:	31 cf       	rjmp	.-414    	; 0xffffffa0 <__eeprom_end+0xff7effa0>

0000013e <__bad_interrupt>:
__vector_22():
../../../../../crt1/gcrt1.S:209
     13e:	60 cf       	rjmp	.-320    	; 0x0 <__vectors>

00000140 <tinyNeoPixel::setPixelColor(unsigned int, unsigned char, unsigned char, unsigned char) [clone .constprop.18]>:
_ZN12tinyNeoPixel13setPixelColorEjhhh.constprop.18():
/home/wlf-solar/.arduino15/packages/megaTinyCore/hardware/megaavr/2.6.11/libraries/tinyNeoPixel_Static/tinyNeoPixel_Static.cpp:1088
  pinMask = digitalPinToBitMask(p);
}

// Set pixel color from separate R,G,B components:
void tinyNeoPixel::setPixelColor(uint16_t n, uint8_t r, uint8_t g, uint8_t b) {
  if (n < numLEDs) {
     140:	e0 91 db 3e 	lds	r30, 0x3EDB	; 0x803edb <ledStrip>
     144:	f0 91 dc 3e 	lds	r31, 0x3EDC	; 0x803edc <ledStrip+0x1>
     148:	8e 17       	cp	r24, r30
     14a:	9f 07       	cpc	r25, r31
     14c:	98 f5       	brcc	.+102    	; 0x1b4 <tinyNeoPixel::setPixelColor(unsigned int, unsigned char, unsigned char, unsigned char) [clone .constprop.18]+0x74>
/home/wlf-solar/.arduino15/packages/megaTinyCore/hardware/megaavr/2.6.11/libraries/tinyNeoPixel_Static/tinyNeoPixel_Static.cpp:1089
    if (brightness) { // See notes in setBrightness()
     14e:	30 91 e2 3e 	lds	r19, 0x3EE2	; 0x803ee2 <ledStrip+0x7>
     152:	33 23       	and	r19, r19
     154:	61 f0       	breq	.+24     	; 0x16e <tinyNeoPixel::setPixelColor(unsigned int, unsigned char, unsigned char, unsigned char) [clone .constprop.18]+0x2e>
/home/wlf-solar/.arduino15/packages/megaTinyCore/hardware/megaavr/2.6.11/libraries/tinyNeoPixel_Static/tinyNeoPixel_Static.cpp:1090
      r = (r * brightness) >> 8;
     156:	63 9f       	mul	r22, r19
     158:	b0 01       	movw	r22, r0
     15a:	11 24       	eor	r1, r1
     15c:	67 2f       	mov	r22, r23
/home/wlf-solar/.arduino15/packages/megaTinyCore/hardware/megaavr/2.6.11/libraries/tinyNeoPixel_Static/tinyNeoPixel_Static.cpp:1091
      g = (g * brightness) >> 8;
     15e:	34 9f       	mul	r19, r20
     160:	a0 01       	movw	r20, r0
     162:	11 24       	eor	r1, r1
     164:	45 2f       	mov	r20, r21
/home/wlf-solar/.arduino15/packages/megaTinyCore/hardware/megaavr/2.6.11/libraries/tinyNeoPixel_Static/tinyNeoPixel_Static.cpp:1092
      b = (b * brightness) >> 8;
     166:	32 9f       	mul	r19, r18
     168:	90 01       	movw	r18, r0
     16a:	11 24       	eor	r1, r1
     16c:	23 2f       	mov	r18, r19
/home/wlf-solar/.arduino15/packages/megaTinyCore/hardware/megaavr/2.6.11/libraries/tinyNeoPixel_Static/tinyNeoPixel_Static.cpp:1095
    }
    uint8_t *p;
    if (wOffset == rOffset) { // Is an RGB-type strip
     16e:	30 91 e8 3e 	lds	r19, 0x3EE8	; 0x803ee8 <ledStrip+0xd>
     172:	e0 91 e3 3e 	lds	r30, 0x3EE3	; 0x803ee3 <ledStrip+0x8>
     176:	f0 91 e4 3e 	lds	r31, 0x3EE4	; 0x803ee4 <ledStrip+0x9>
     17a:	50 91 e5 3e 	lds	r21, 0x3EE5	; 0x803ee5 <ledStrip+0xa>
     17e:	35 13       	cpse	r19, r21
     180:	1a c0       	rjmp	.+52     	; 0x1b6 <tinyNeoPixel::setPixelColor(unsigned int, unsigned char, unsigned char, unsigned char) [clone .constprop.18]+0x76>
/home/wlf-solar/.arduino15/packages/megaTinyCore/hardware/megaavr/2.6.11/libraries/tinyNeoPixel_Static/tinyNeoPixel_Static.cpp:1096
      p = &pixels[n * 3];    // 3 bytes per pixel
     182:	dc 01       	movw	r26, r24
     184:	aa 0f       	add	r26, r26
     186:	bb 1f       	adc	r27, r27
     188:	8a 0f       	add	r24, r26
     18a:	9b 1f       	adc	r25, r27
     18c:	8e 0f       	add	r24, r30
     18e:	9f 1f       	adc	r25, r31
/home/wlf-solar/.arduino15/packages/megaTinyCore/hardware/megaavr/2.6.11/libraries/tinyNeoPixel_Static/tinyNeoPixel_Static.cpp:1101
    } else {                 // Is a WRGB-type strip
      p = &pixels[n * 4];    // 4 bytes per pixel
      p[wOffset] = 0;        // But only R,G,B passed -- set W to 0
    }
    p[rOffset] = r;          // R,G,B always stored
     190:	e0 91 e5 3e 	lds	r30, 0x3EE5	; 0x803ee5 <ledStrip+0xa>
     194:	e8 0f       	add	r30, r24
     196:	f9 2f       	mov	r31, r25
     198:	f1 1d       	adc	r31, r1
     19a:	60 83       	st	Z, r22
/home/wlf-solar/.arduino15/packages/megaTinyCore/hardware/megaavr/2.6.11/libraries/tinyNeoPixel_Static/tinyNeoPixel_Static.cpp:1102
    p[gOffset] = g;
     19c:	e0 91 e6 3e 	lds	r30, 0x3EE6	; 0x803ee6 <ledStrip+0xb>
     1a0:	e8 0f       	add	r30, r24
     1a2:	f9 2f       	mov	r31, r25
     1a4:	f1 1d       	adc	r31, r1
     1a6:	40 83       	st	Z, r20
/home/wlf-solar/.arduino15/packages/megaTinyCore/hardware/megaavr/2.6.11/libraries/tinyNeoPixel_Static/tinyNeoPixel_Static.cpp:1103
    p[bOffset] = b;
     1a8:	30 91 e7 3e 	lds	r19, 0x3EE7	; 0x803ee7 <ledStrip+0xc>
     1ac:	83 0f       	add	r24, r19
     1ae:	91 1d       	adc	r25, r1
     1b0:	fc 01       	movw	r30, r24
     1b2:	20 83       	st	Z, r18
/home/wlf-solar/.arduino15/packages/megaTinyCore/hardware/megaavr/2.6.11/libraries/tinyNeoPixel_Static/tinyNeoPixel_Static.cpp:1105
  }
}
     1b4:	08 95       	ret
/home/wlf-solar/.arduino15/packages/megaTinyCore/hardware/megaavr/2.6.11/libraries/tinyNeoPixel_Static/tinyNeoPixel_Static.cpp:1098
    }
    uint8_t *p;
    if (wOffset == rOffset) { // Is an RGB-type strip
      p = &pixels[n * 3];    // 3 bytes per pixel
    } else {                 // Is a WRGB-type strip
      p = &pixels[n * 4];    // 4 bytes per pixel
     1b6:	88 0f       	add	r24, r24
     1b8:	99 1f       	adc	r25, r25
     1ba:	88 0f       	add	r24, r24
     1bc:	99 1f       	adc	r25, r25
     1be:	8e 0f       	add	r24, r30
     1c0:	9f 1f       	adc	r25, r31
/home/wlf-solar/.arduino15/packages/megaTinyCore/hardware/megaavr/2.6.11/libraries/tinyNeoPixel_Static/tinyNeoPixel_Static.cpp:1099
      p[wOffset] = 0;        // But only R,G,B passed -- set W to 0
     1c2:	fc 01       	movw	r30, r24
     1c4:	e3 0f       	add	r30, r19
     1c6:	f1 1d       	adc	r31, r1
     1c8:	10 82       	st	Z, r1
     1ca:	e2 cf       	rjmp	.-60     	; 0x190 <tinyNeoPixel::setPixelColor(unsigned int, unsigned char, unsigned char, unsigned char) [clone .constprop.18]+0x50>

000001cc <delay.part.0>:
delay.part.0():
/home/wlf-solar/.arduino15/packages/megaTinyCore/hardware/megaavr/2.6.11/cores/megatinycore/wiring.c:243
        start += 1000;
      }
    }
  }
#else
  void delay(uint32_t ms) {
     1cc:	0f 93       	push	r16
     1ce:	1f 93       	push	r17
     1d0:	ab 01       	movw	r20, r22
     1d2:	bc 01       	movw	r22, r24
millis():
/home/wlf-solar/.arduino15/packages/megaTinyCore/hardware/megaavr/2.6.11/cores/megatinycore/wiring.c:167
  unsigned long millis() {
    // return timer_overflow_count; // for debugging timekeeping issues where these variables are out of scope from the sketch
    unsigned long m;
    // disable interrupts while we read timer_millis or we might get an
    // inconsistent value (e.g. in the middle of a write to timer_millis)
    uint8_t oldSREG = SREG;
     1d4:	8f b7       	in	r24, 0x3f	; 63
/home/wlf-solar/.arduino15/packages/megaTinyCore/hardware/megaavr/2.6.11/cores/megatinycore/wiring.c:168
    cli();
     1d6:	f8 94       	cli
/home/wlf-solar/.arduino15/packages/megaTinyCore/hardware/megaavr/2.6.11/cores/megatinycore/wiring.c:182
        if (!(rtccount & 0x8000)) m += 64000;
      }
      SREG = oldSREG;
      m += rtccount - (rtccount >> 5) + (rtccount >> 7);
    #else
      m = timingStruct.timer_millis;
     1d8:	00 91 d5 3e 	lds	r16, 0x3ED5	; 0x803ed5 <timingStruct+0x4>
     1dc:	10 91 d6 3e 	lds	r17, 0x3ED6	; 0x803ed6 <timingStruct+0x5>
     1e0:	20 91 d7 3e 	lds	r18, 0x3ED7	; 0x803ed7 <timingStruct+0x6>
     1e4:	30 91 d8 3e 	lds	r19, 0x3ED8	; 0x803ed8 <timingStruct+0x7>
/home/wlf-solar/.arduino15/packages/megaTinyCore/hardware/megaavr/2.6.11/cores/megatinycore/wiring.c:183
      SREG = oldSREG;
     1e8:	8f bf       	out	0x3f, r24	; 63
/home/wlf-solar/.arduino15/packages/megaTinyCore/hardware/megaavr/2.6.11/cores/megatinycore/wiring.c:167
  unsigned long millis() {
    // return timer_overflow_count; // for debugging timekeeping issues where these variables are out of scope from the sketch
    unsigned long m;
    // disable interrupts while we read timer_millis or we might get an
    // inconsistent value (e.g. in the middle of a write to timer_millis)
    uint8_t oldSREG = SREG;
     1ea:	ef b7       	in	r30, 0x3f	; 63
/home/wlf-solar/.arduino15/packages/megaTinyCore/hardware/megaavr/2.6.11/cores/megatinycore/wiring.c:168
    cli();
     1ec:	f8 94       	cli
/home/wlf-solar/.arduino15/packages/megaTinyCore/hardware/megaavr/2.6.11/cores/megatinycore/wiring.c:182
        if (!(rtccount & 0x8000)) m += 64000;
      }
      SREG = oldSREG;
      m += rtccount - (rtccount >> 5) + (rtccount >> 7);
    #else
      m = timingStruct.timer_millis;
     1ee:	80 91 d5 3e 	lds	r24, 0x3ED5	; 0x803ed5 <timingStruct+0x4>
     1f2:	90 91 d6 3e 	lds	r25, 0x3ED6	; 0x803ed6 <timingStruct+0x5>
     1f6:	a0 91 d7 3e 	lds	r26, 0x3ED7	; 0x803ed7 <timingStruct+0x6>
     1fa:	b0 91 d8 3e 	lds	r27, 0x3ED8	; 0x803ed8 <timingStruct+0x7>
/home/wlf-solar/.arduino15/packages/megaTinyCore/hardware/megaavr/2.6.11/cores/megatinycore/wiring.c:183
      SREG = oldSREG;
     1fe:	ef bf       	out	0x3f, r30	; 63
delay.part.0():
/home/wlf-solar/.arduino15/packages/megaTinyCore/hardware/megaavr/2.6.11/cores/megatinycore/wiring.c:252
      while(ms--) {
        _delay_ms(1);
      }
    } else {
      uint32_t start = millis();
      while (millis() - start < ms);
     200:	80 1b       	sub	r24, r16
     202:	91 0b       	sbc	r25, r17
     204:	a2 0b       	sbc	r26, r18
     206:	b3 0b       	sbc	r27, r19
     208:	84 17       	cp	r24, r20
     20a:	95 07       	cpc	r25, r21
     20c:	a6 07       	cpc	r26, r22
     20e:	b7 07       	cpc	r27, r23
     210:	60 f3       	brcs	.-40     	; 0x1ea <delay.part.0+0x1e>
/home/wlf-solar/.arduino15/packages/megaTinyCore/hardware/megaavr/2.6.11/cores/megatinycore/wiring.c:254
    }
  }
     212:	1f 91       	pop	r17
     214:	0f 91       	pop	r16
     216:	08 95       	ret

00000218 <micros>:
micros():
/home/wlf-solar/.arduino15/packages/megaTinyCore/hardware/megaavr/2.6.11/cores/megatinycore/wiring_micros_ISR.h:403
}



#if !(defined(MILLIS_USE_TIMERNONE) || defined(MILLIS_USE_TIMERRTC))
  unsigned long micros() {
     218:	cf 92       	push	r12
     21a:	df 92       	push	r13
     21c:	ef 92       	push	r14
     21e:	ff 92       	push	r15
/home/wlf-solar/.arduino15/packages/megaTinyCore/hardware/megaavr/2.6.11/cores/megatinycore/wiring_micros_ISR.h:412
    #else /* TCA */
      uint8_t ticks;
    #endif
    uint8_t flags;
    /* Save current state and disable interrupts */
    uint8_t oldSREG = SREG;
     220:	9f b7       	in	r25, 0x3f	; 63
/home/wlf-solar/.arduino15/packages/megaTinyCore/hardware/megaavr/2.6.11/cores/megatinycore/wiring_micros_ISR.h:413
    cli(); /* INTERRUPTS OFF */
     222:	f8 94       	cli
/home/wlf-solar/.arduino15/packages/megaTinyCore/hardware/megaavr/2.6.11/cores/megatinycore/wiring_micros_ISR.h:421
      flags = _timer->INTFLAGS;
    #elif defined(MILLIS_USE_TIMERA0)
      ticks = TCA0.SPLIT.HCNT;
      flags = TCA0.SPLIT.INTFLAGS;
    #elif defined(MILLIS_USE_TIMERD0)
      TCD0.CTRLE = TCD_SCAPTUREA_bm;
     224:	88 e0       	ldi	r24, 0x08	; 8
     226:	80 93 84 0a 	sts	0x0A84, r24	; 0x800a84 <digital_pin_to_bit_mask+0x7f6a98>
/home/wlf-solar/.arduino15/packages/megaTinyCore/hardware/megaavr/2.6.11/cores/megatinycore/wiring_micros_ISR.h:422
      while (!(TCD0.STATUS & TCD_CMDRDY_bm)); // wait for sync - should be only one iteration of this loop
     22a:	80 91 8e 0a 	lds	r24, 0x0A8E	; 0x800a8e <digital_pin_to_bit_mask+0x7f6aa2>
     22e:	81 ff       	sbrs	r24, 1
     230:	fc cf       	rjmp	.-8      	; 0x22a <micros+0x12>
/home/wlf-solar/.arduino15/packages/megaTinyCore/hardware/megaavr/2.6.11/cores/megatinycore/wiring_micros_ISR.h:423
      flags = TCD0.INTFLAGS;
     232:	80 91 8d 0a 	lds	r24, 0x0A8D	; 0x800a8d <digital_pin_to_bit_mask+0x7f6aa1>
/home/wlf-solar/.arduino15/packages/megaTinyCore/hardware/megaavr/2.6.11/cores/megatinycore/wiring_micros_ISR.h:424
      ticks = TCD0.CAPTUREA;
     236:	e0 91 a2 0a 	lds	r30, 0x0AA2	; 0x800aa2 <digital_pin_to_bit_mask+0x7f6ab6>
     23a:	f0 91 a3 0a 	lds	r31, 0x0AA3	; 0x800aa3 <digital_pin_to_bit_mask+0x7f6ab7>
/home/wlf-solar/.arduino15/packages/megaTinyCore/hardware/megaavr/2.6.11/cores/megatinycore/wiring_micros_ISR.h:434
     * ISR has not fired. If we already read a high value of ticks, either we read it just before the overflow,
     * so we shouldn't increment overflows, or interrupts are disabled and micros isn't expected to work so it
     * doesn't matter.
     * Get current number of overflows and timer count */
    #if (MILLIS_TYPE != MILLIS_TCB)
      overflows = timingStruct.timer_overflow_count;
     23e:	c0 90 d1 3e 	lds	r12, 0x3ED1	; 0x803ed1 <timingStruct>
     242:	d0 90 d2 3e 	lds	r13, 0x3ED2	; 0x803ed2 <timingStruct+0x1>
     246:	e0 90 d3 3e 	lds	r14, 0x3ED3	; 0x803ed3 <timingStruct+0x2>
     24a:	f0 90 d4 3e 	lds	r15, 0x3ED4	; 0x803ed4 <timingStruct+0x3>
/home/wlf-solar/.arduino15/packages/megaTinyCore/hardware/megaavr/2.6.11/cores/megatinycore/wiring_micros_ISR.h:439
    #else
      overflows = timingStruct.timer_millis;
    #endif
    /* Turn interrupts back on, assuming they were on when micros was called. */
    SREG = oldSREG; /* INTERRUPTS ON */
     24e:	9f bf       	out	0x3f, r25	; 63
/home/wlf-solar/.arduino15/packages/megaTinyCore/hardware/megaavr/2.6.11/cores/megatinycore/wiring_micros_ISR.h:441
    #if defined(MILLIS_USE_TIMERD0)
      if ((flags & TCD_OVF_bm) && (ticks < 0x07)) {
     250:	80 ff       	sbrs	r24, 0
     252:	08 c0       	rjmp	.+16     	; 0x264 <micros+0x4c>
     254:	e7 30       	cpi	r30, 0x07	; 7
     256:	f1 05       	cpc	r31, r1
     258:	28 f4       	brcc	.+10     	; 0x264 <micros+0x4c>
/home/wlf-solar/.arduino15/packages/megaTinyCore/hardware/megaavr/2.6.11/cores/megatinycore/wiring_micros_ISR.h:451
      if ((flags & TCB_CAPT_bm) && !(ticks & 0xFF00)) {
    #endif
    #if (MILLIS_TYPE == MILLIS_TCB) && !(F_CPU > 2000000UL)
      overflows +=2;
    #else
      overflows++;
     25a:	8f ef       	ldi	r24, 0xFF	; 255
     25c:	c8 1a       	sub	r12, r24
     25e:	d8 0a       	sbc	r13, r24
     260:	e8 0a       	sbc	r14, r24
     262:	f8 0a       	sbc	r15, r24
/home/wlf-solar/.arduino15/packages/megaTinyCore/hardware/megaavr/2.6.11/cores/megatinycore/wiring_micros_ISR.h:457
    #endif
      } // end getting ticks

    #if defined(MILLIS_USE_TIMERD0)
      #if (F_CPU == 20000000UL || F_CPU == 10000000UL || F_CPU == 5000000UL)
        uint8_t ticks_l = ticks >> 1;
     264:	9f 01       	movw	r18, r30
     266:	36 95       	lsr	r19
     268:	27 95       	ror	r18
/home/wlf-solar/.arduino15/packages/megaTinyCore/hardware/megaavr/2.6.11/cores/megatinycore/wiring_micros_ISR.h:458
        ticks = ticks + ticks_l + ((ticks_l >> 2) - (ticks_l >> 4) + (ticks_l >> 7));
     26a:	cf 01       	movw	r24, r30
     26c:	82 0f       	add	r24, r18
     26e:	91 1d       	adc	r25, r1
     270:	e2 2f       	mov	r30, r18
     272:	e6 95       	lsr	r30
     274:	e6 95       	lsr	r30
     276:	32 2f       	mov	r19, r18
     278:	32 95       	swap	r19
     27a:	3f 70       	andi	r19, 0x0F	; 15
     27c:	e3 1b       	sub	r30, r19
     27e:	ff 0b       	sbc	r31, r31
     280:	27 fd       	sbrc	r18, 7
     282:	31 96       	adiw	r30, 0x01	; 1
     284:	e8 0f       	add	r30, r24
     286:	f9 1f       	adc	r31, r25
/home/wlf-solar/.arduino15/packages/megaTinyCore/hardware/megaavr/2.6.11/cores/megatinycore/wiring_micros_ISR.h:462
        // + ticks +(ticks>>1)+(ticks>>3)-(ticks>>5)+(ticks>>8))
        // speed optimization via doing math with smaller datatypes, since we know high byte is 1 or 0.
        //microseconds =   overflows * (TIME_TRACKING_CYCLES_PER_OVF / 20) + ticks; // ticks value corrected above. *FIVE HUNDRED AND TEN DOES NOT EVENLY DIVIDE BY 20!* What the fuck?
        microseconds =   overflows * (TIME_TRACKING_CYCLES_PER_OVF / 20) + ticks + (overflows >> 1);
     288:	a0 e3       	ldi	r26, 0x30	; 48
     28a:	b3 e0       	ldi	r27, 0x03	; 3
     28c:	a7 01       	movw	r20, r14
     28e:	96 01       	movw	r18, r12
     290:	6b de       	rcall	.-810    	; 0xffffff68 <__eeprom_end+0xff7eff68>
     292:	f6 94       	lsr	r15
     294:	e7 94       	ror	r14
     296:	d7 94       	ror	r13
     298:	c7 94       	ror	r12
     29a:	c6 0e       	add	r12, r22
     29c:	d7 1e       	adc	r13, r23
     29e:	e8 1e       	adc	r14, r24
     2a0:	f9 1e       	adc	r15, r25
     2a2:	c7 01       	movw	r24, r14
     2a4:	b6 01       	movw	r22, r12
     2a6:	6e 0f       	add	r22, r30
     2a8:	7f 1f       	adc	r23, r31
     2aa:	81 1d       	adc	r24, r1
     2ac:	91 1d       	adc	r25, r1
/home/wlf-solar/.arduino15/packages/megaTinyCore/hardware/megaavr/2.6.11/cores/megatinycore/wiring_micros_ISR.h:800
        microseconds = ((overflows * millisClockCyclesToMicroseconds(TIME_TRACKING_CYCLES_PER_OVF))
                      + (ticks * (millisClockCyclesToMicroseconds(TIME_TRACKING_CYCLES_PER_OVF) / TIME_TRACKING_TIMER_PERIOD)));
      #endif
    #endif // end of timer-specific part of micros calculations
    return microseconds;
  }
     2ae:	ff 90       	pop	r15
     2b0:	ef 90       	pop	r14
     2b2:	df 90       	pop	r13
     2b4:	cf 90       	pop	r12
     2b6:	08 95       	ret

000002b8 <tinyNeoPixel::show() [clone .constprop.20]>:
_ZN12tinyNeoPixel4showEv.constprop.20():
/home/wlf-solar/.arduino15/packages/megaTinyCore/hardware/megaavr/2.6.11/libraries/tinyNeoPixel_Static/tinyNeoPixel_Static.cpp:79
  latchTime = (us < 6 ? 6 : us); // there are no devices in production with a shorter latch waiting time, and thus is the shortest reasonable latch delay.
}
// *INDENT-OFF*   astyle don't like assembly
#if (PROGMEM_SIZE > 4096UL)

void tinyNeoPixel::show(void) {
     2b8:	0f 93       	push	r16
     2ba:	1f 93       	push	r17
     2bc:	cf 93       	push	r28
     2be:	df 93       	push	r29
     2c0:	cd b7       	in	r28, 0x3d	; 61
     2c2:	de b7       	in	r29, 0x3e	; 62
     2c4:	27 97       	sbiw	r28, 0x07	; 7
     2c6:	cd bf       	out	0x3d, r28	; 61
     2c8:	de bf       	out	0x3e, r29	; 62
show():
/home/wlf-solar/.arduino15/packages/megaTinyCore/hardware/megaavr/2.6.11/libraries/tinyNeoPixel_Static/tinyNeoPixel_Static.cpp:83
  show(0);
}
void tinyNeoPixel::show(uint16_t leds) {
  volatile uint16_t i = numBytes;;
     2ca:	80 91 dd 3e 	lds	r24, 0x3EDD	; 0x803edd <ledStrip+0x2>
     2ce:	90 91 de 3e 	lds	r25, 0x3EDE	; 0x803ede <ledStrip+0x3>
     2d2:	89 83       	std	Y+1, r24	; 0x01
     2d4:	9a 83       	std	Y+2, r25	; 0x02
/home/wlf-solar/.arduino15/packages/megaTinyCore/hardware/megaavr/2.6.11/libraries/tinyNeoPixel_Static/tinyNeoPixel_Static.cpp:91
      i = leds + leds + leds;
    } else {
      i = leds << 2;
    }
  }
  if ((!pixels) || pin >= NUM_DIGITAL_PINS)  {
     2d6:	80 91 e3 3e 	lds	r24, 0x3EE3	; 0x803ee3 <ledStrip+0x8>
     2da:	90 91 e4 3e 	lds	r25, 0x3EE4	; 0x803ee4 <ledStrip+0x9>
     2de:	89 2b       	or	r24, r25
     2e0:	09 f4       	brne	.+2      	; 0x2e4 <tinyNeoPixel::show() [clone .constprop.20]+0x2c>
     2e2:	69 c0       	rjmp	.+210    	; 0x3b6 <_nextbyte20+0x30>
     2e4:	80 91 e1 3e 	lds	r24, 0x3EE1	; 0x803ee1 <ledStrip+0x6>
     2e8:	8c 30       	cpi	r24, 0x0C	; 12
     2ea:	0c f0       	brlt	.+2      	; 0x2ee <tinyNeoPixel::show() [clone .constprop.20]+0x36>
     2ec:	64 c0       	rjmp	.+200    	; 0x3b6 <_nextbyte20+0x30>
canShow():
/home/wlf-solar/.arduino15/packages/megaTinyCore/hardware/megaavr/2.6.11/libraries/tinyNeoPixel_Static/tinyNeoPixel_Static.h:302
             function instead.
  */
  static uint32_t gamma32(uint32_t x);

  #if (defined(micros))
    inline bool canShow(void) { return (micros() - endTime) >= (uint32_t) latchTime; }
     2ee:	94 df       	rcall	.-216    	; 0x218 <micros>
     2f0:	00 91 e9 3e 	lds	r16, 0x3EE9	; 0x803ee9 <ledStrip+0xe>
     2f4:	10 91 ea 3e 	lds	r17, 0x3EEA	; 0x803eea <ledStrip+0xf>
     2f8:	20 91 eb 3e 	lds	r18, 0x3EEB	; 0x803eeb <ledStrip+0x10>
     2fc:	30 91 ec 3e 	lds	r19, 0x3EEC	; 0x803eec <ledStrip+0x11>
     300:	ab 01       	movw	r20, r22
     302:	bc 01       	movw	r22, r24
     304:	40 1b       	sub	r20, r16
     306:	51 0b       	sbc	r21, r17
     308:	62 0b       	sbc	r22, r18
     30a:	73 0b       	sbc	r23, r19
     30c:	80 91 df 3e 	lds	r24, 0x3EDF	; 0x803edf <ledStrip+0x4>
     310:	90 91 e0 3e 	lds	r25, 0x3EE0	; 0x803ee0 <ledStrip+0x5>
     314:	b0 e0       	ldi	r27, 0x00	; 0
     316:	a0 e0       	ldi	r26, 0x00	; 0
show():
/home/wlf-solar/.arduino15/packages/megaTinyCore/hardware/megaavr/2.6.11/libraries/tinyNeoPixel_Static/tinyNeoPixel_Static.cpp:104
  // put a delay at the end of the function, the ending time is noted and
  // the function will simply hold off (if needed) on issuing the
  // subsequent round of data until the latch time has elapsed.  This
  // allows the mainline code to start generating the next frame of data
  // rather than stalling for the latch.
  while (!canShow());
     318:	48 17       	cp	r20, r24
     31a:	59 07       	cpc	r21, r25
     31c:	6a 07       	cpc	r22, r26
     31e:	7b 07       	cpc	r23, r27
     320:	30 f3       	brcs	.-52     	; 0x2ee <tinyNeoPixel::show() [clone .constprop.20]+0x36>
/home/wlf-solar/.arduino15/packages/megaTinyCore/hardware/megaavr/2.6.11/libraries/tinyNeoPixel_Static/tinyNeoPixel_Static.cpp:155
  //   * b (bit number for speeds that don't have to unroll the loop)
  //     is given constraint "+r", which can assign it to any register.
  //     But the code uses LDI on it. LDI doesn't work on every register,
  //     it must have the "+d" constraint to guarantee an upper register.

  noInterrupts(); // Need 100% focus on instruction timing
     322:	f8 94       	cli
/home/wlf-solar/.arduino15/packages/megaTinyCore/hardware/megaavr/2.6.11/libraries/tinyNeoPixel_Static/tinyNeoPixel_Static.cpp:166
  // run at those speeds, only that - if they do - you can control WS2812s
  // with them.


  volatile uint8_t
   *ptr = pixels,   // Pointer to next byte
     324:	a0 91 e3 3e 	lds	r26, 0x3EE3	; 0x803ee3 <ledStrip+0x8>
     328:	b0 91 e4 3e 	lds	r27, 0x3EE4	; 0x803ee4 <ledStrip+0x9>
/home/wlf-solar/.arduino15/packages/megaTinyCore/hardware/megaavr/2.6.11/libraries/tinyNeoPixel_Static/tinyNeoPixel_Static.cpp:167
    b   = *ptr++,   // Current byte value
     32c:	fd 01       	movw	r30, r26
     32e:	31 96       	adiw	r30, 0x01	; 1
     330:	8c 91       	ld	r24, X
     332:	8f 83       	std	Y+7, r24	; 0x07
/home/wlf-solar/.arduino15/packages/megaTinyCore/hardware/megaavr/2.6.11/libraries/tinyNeoPixel_Static/tinyNeoPixel_Static.cpp:690
    // 25 inst. clocks per bit: HHHHHHHxxxxxxxLLLLLLLLLLL      H:7 x:7 L11
    // ST instructions:         ^      ^      ^       (T=0,7,14)

    volatile uint8_t next, bit;

    hi   = *port |  pinMask;
     334:	a0 91 ed 3e 	lds	r26, 0x3EED	; 0x803eed <ledStrip+0x12>
     338:	b0 91 ee 3e 	lds	r27, 0x3EEE	; 0x803eee <ledStrip+0x13>
     33c:	9c 91       	ld	r25, X
     33e:	80 91 ef 3e 	lds	r24, 0x3EEF	; 0x803eef <ledStrip+0x14>
     342:	98 2b       	or	r25, r24
     344:	9e 83       	std	Y+6, r25	; 0x06
/home/wlf-solar/.arduino15/packages/megaTinyCore/hardware/megaavr/2.6.11/libraries/tinyNeoPixel_Static/tinyNeoPixel_Static.cpp:691
    lo   = *port & ~pinMask;
     346:	9c 91       	ld	r25, X
     348:	80 95       	com	r24
     34a:	89 23       	and	r24, r25
     34c:	8d 83       	std	Y+5, r24	; 0x05
/home/wlf-solar/.arduino15/packages/megaTinyCore/hardware/megaavr/2.6.11/libraries/tinyNeoPixel_Static/tinyNeoPixel_Static.cpp:692
    next = lo;
     34e:	8d 81       	ldd	r24, Y+5	; 0x05
     350:	8c 83       	std	Y+4, r24	; 0x04
/home/wlf-solar/.arduino15/packages/megaTinyCore/hardware/megaavr/2.6.11/libraries/tinyNeoPixel_Static/tinyNeoPixel_Static.cpp:693
    bit  = 8;
     352:	88 e0       	ldi	r24, 0x08	; 8
     354:	8b 83       	std	Y+3, r24	; 0x03
/home/wlf-solar/.arduino15/packages/megaTinyCore/hardware/megaavr/2.6.11/libraries/tinyNeoPixel_Static/tinyNeoPixel_Static.cpp:732
      [bit]   "+d" (bit),
      [next]  "+r" (next),
      [count] "+w" (i)
    : [port]   "e" (port),
      [hi]     "r" (hi),
      [lo]     "r" (lo));
     356:	5e 81       	ldd	r21, Y+6	; 0x06
     358:	6d 81       	ldd	r22, Y+5	; 0x05
     35a:	4f 81       	ldd	r20, Y+7	; 0x07
     35c:	3b 81       	ldd	r19, Y+3	; 0x03
     35e:	2c 81       	ldd	r18, Y+4	; 0x04
     360:	89 81       	ldd	r24, Y+1	; 0x01
     362:	9a 81       	ldd	r25, Y+2	; 0x02

00000364 <_head20>:
     364:	5c 93       	st	X, r21
     366:	47 fd       	sbrc	r20, 7
     368:	25 2f       	mov	r18, r21
     36a:	3a 95       	dec	r19
     36c:	00 00       	nop
     36e:	00 c0       	rjmp	.+0      	; 0x370 <_head20+0xc>
     370:	2c 93       	st	X, r18
     372:	26 2f       	mov	r18, r22
     374:	41 f0       	breq	.+16     	; 0x386 <_nextbyte20>
     376:	44 1f       	adc	r20, r20
     378:	00 c0       	rjmp	.+0      	; 0x37a <_head20+0x16>
     37a:	00 00       	nop
     37c:	6c 93       	st	X, r22
     37e:	01 d0       	rcall	.+2      	; 0x382 <_onlydelay20>
     380:	f1 cf       	rjmp	.-30     	; 0x364 <_head20>

00000382 <_onlydelay20>:
     382:	00 c0       	rjmp	.+0      	; 0x384 <_onlydelay20+0x2>
     384:	08 95       	ret

00000386 <_nextbyte20>:
     386:	38 e0       	ldi	r19, 0x08	; 8
     388:	41 91       	ld	r20, Z+
     38a:	00 00       	nop
     38c:	6c 93       	st	X, r22
     38e:	00 00       	nop
     390:	00 c0       	rjmp	.+0      	; 0x392 <_nextbyte20+0xc>
     392:	00 c0       	rjmp	.+0      	; 0x394 <_nextbyte20+0xe>
     394:	01 97       	sbiw	r24, 0x01	; 1
     396:	31 f7       	brne	.-52     	; 0x364 <_head20>
     398:	4f 83       	std	Y+7, r20	; 0x07
     39a:	3b 83       	std	Y+3, r19	; 0x03
     39c:	2c 83       	std	Y+4, r18	; 0x04
     39e:	89 83       	std	Y+1, r24	; 0x01
     3a0:	9a 83       	std	Y+2, r25	; 0x02
/home/wlf-solar/.arduino15/packages/megaTinyCore/hardware/megaavr/2.6.11/libraries/tinyNeoPixel_Static/tinyNeoPixel_Static.cpp:1072
    #error "CPU SPEED NOT SUPPORTED"
  #endif



  interrupts();
     3a2:	78 94       	sei
/home/wlf-solar/.arduino15/packages/megaTinyCore/hardware/megaavr/2.6.11/libraries/tinyNeoPixel_Static/tinyNeoPixel_Static.cpp:1074
  #if (defined(micros))
    endTime = micros();
     3a4:	39 df       	rcall	.-398    	; 0x218 <micros>
     3a6:	60 93 e9 3e 	sts	0x3EE9, r22	; 0x803ee9 <ledStrip+0xe>
     3aa:	70 93 ea 3e 	sts	0x3EEA, r23	; 0x803eea <ledStrip+0xf>
     3ae:	80 93 eb 3e 	sts	0x3EEB, r24	; 0x803eeb <ledStrip+0x10>
     3b2:	90 93 ec 3e 	sts	0x3EEC, r25	; 0x803eec <ledStrip+0x11>
_ZN12tinyNeoPixel4showEv.constprop.20():
/home/wlf-solar/.arduino15/packages/megaTinyCore/hardware/megaavr/2.6.11/libraries/tinyNeoPixel_Static/tinyNeoPixel_Static.cpp:81
// *INDENT-OFF*   astyle don't like assembly
#if (PROGMEM_SIZE > 4096UL)

void tinyNeoPixel::show(void) {
  show(0);
}
     3b6:	27 96       	adiw	r28, 0x07	; 7
     3b8:	cd bf       	out	0x3d, r28	; 61
     3ba:	de bf       	out	0x3e, r29	; 62
     3bc:	df 91       	pop	r29
     3be:	cf 91       	pop	r28
     3c0:	1f 91       	pop	r17
     3c2:	0f 91       	pop	r16
     3c4:	08 95       	ret

000003c6 <ptc_start_conversion>:
ptc_start_conversion():
/home/wlf-solar/.arduino15/packages/megaTinyCore/hardware/megaavr/2.6.11/libraries/PTC/src/ptc.c:945
    ptc_start_conversion(firstNode);
  }
  #endif
}

void ptc_start_conversion(cap_sensor_t *node) {
     3c6:	cf 93       	push	r28
     3c8:	df 93       	push	r29
     3ca:	fc 01       	movw	r30, r24
/home/wlf-solar/.arduino15/packages/megaTinyCore/hardware/megaavr/2.6.11/libraries/PTC/src/ptc.c:952
    if (NULL == node) {
      PTC.INTCTRL = 0;    // disable ISR for ADC reuse
      ptc_lib_state = PTC_LIB_CONV_COMPL;
      return;
    }
    if ((0 == node->state.disabled) && (node->type == currConvType)) {
     3cc:	80 91 3c 3e 	lds	r24, 0x3E3C	; 0x803e3c <currConvType>
     3d0:	90 91 3d 3e 	lds	r25, 0x3E3D	; 0x803e3d <currConvType+0x1>
/home/wlf-solar/.arduino15/packages/megaTinyCore/hardware/megaavr/2.6.11/libraries/PTC/src/ptc.c:947
  #endif
}

void ptc_start_conversion(cap_sensor_t *node) {
  while (1) {
    if (NULL == node) {
     3d4:	30 97       	sbiw	r30, 0x00	; 0
     3d6:	59 f4       	brne	.+22     	; 0x3ee <ptc_start_conversion+0x28>
/home/wlf-solar/.arduino15/packages/megaTinyCore/hardware/megaavr/2.6.11/libraries/PTC/src/ptc.c:948
      PTC.INTCTRL = 0;    // disable ISR for ADC reuse
     3d8:	10 92 0a 06 	sts	0x060A, r1	; 0x80060a <digital_pin_to_bit_mask+0x7f661e>
/home/wlf-solar/.arduino15/packages/megaTinyCore/hardware/megaavr/2.6.11/libraries/PTC/src/ptc.c:949
      ptc_lib_state = PTC_LIB_CONV_COMPL;
     3dc:	82 e0       	ldi	r24, 0x02	; 2
     3de:	90 e0       	ldi	r25, 0x00	; 0
     3e0:	80 93 3e 3e 	sts	0x3E3E, r24	; 0x803e3e <ptc_lib_state>
     3e4:	90 93 3f 3e 	sts	0x3E3F, r25	; 0x803e3f <ptc_lib_state+0x1>
/home/wlf-solar/.arduino15/packages/megaTinyCore/hardware/megaavr/2.6.11/libraries/PTC/src/ptc.c:1036
  if (0 == node->state.low_power) {
    pPTC->COMMAND = 0x01; // Normal operation: Manual Start
  } else {
    pPTC->EVCTRL = 0x01;  // Low Power: Start by positive flank on event
  }
}
     3e8:	df 91       	pop	r29
     3ea:	cf 91       	pop	r28
     3ec:	08 95       	ret
/home/wlf-solar/.arduino15/packages/megaTinyCore/hardware/megaavr/2.6.11/libraries/PTC/src/ptc.c:952
    if (NULL == node) {
      PTC.INTCTRL = 0;    // disable ISR for ADC reuse
      ptc_lib_state = PTC_LIB_CONV_COMPL;
      return;
    }
    if ((0 == node->state.disabled) && (node->type == currConvType)) {
     3ee:	24 85       	ldd	r18, Z+12	; 0x0c
     3f0:	24 fd       	sbrc	r18, 4
     3f2:	05 c0       	rjmp	.+10     	; 0x3fe <ptc_start_conversion+0x38>
     3f4:	22 81       	ldd	r18, Z+2	; 0x02
     3f6:	33 81       	ldd	r19, Z+3	; 0x03
     3f8:	28 17       	cp	r18, r24
     3fa:	39 07       	cpc	r19, r25
     3fc:	21 f0       	breq	.+8      	; 0x406 <__LOCK_REGION_LENGTH__+0x6>
/home/wlf-solar/.arduino15/packages/megaTinyCore/hardware/megaavr/2.6.11/libraries/PTC/src/ptc.c:955
      break;
    } else {
      node = node->nextNode;
     3fe:	01 90       	ld	r0, Z+
     400:	f0 81       	ld	r31, Z
     402:	e0 2d       	mov	r30, r0
     404:	e7 cf       	rjmp	.-50     	; 0x3d4 <ptc_start_conversion+0xe>
/home/wlf-solar/.arduino15/packages/megaTinyCore/hardware/megaavr/2.6.11/libraries/PTC/src/ptc.c:959
    }
  }

  currConvNode = node;
     406:	e0 93 40 3e 	sts	0x3E40, r30	; 0x803e40 <currConvNode>
     40a:	f0 93 41 3e 	sts	0x3E41, r31	; 0x803e41 <currConvNode+0x1>
/home/wlf-solar/.arduino15/packages/megaTinyCore/hardware/megaavr/2.6.11/libraries/PTC/src/ptc.c:962

  PTC_t *pPTC;
  _fastPtr_d(pPTC, &PTC);
     40e:	c0 e0       	ldi	r28, 0x00	; 0
     410:	d6 e0       	ldi	r29, 0x06	; 6
/home/wlf-solar/.arduino15/packages/megaTinyCore/hardware/megaavr/2.6.11/libraries/PTC/src/ptc.c:965
  _fastPtr_d(node, node);
  uint8_t analogGain = PTC_GAIN_MAX;
  if (node->stateMachine != PTC_SM_NOINIT_CAL) {
     412:	85 89       	ldd	r24, Z+21	; 0x15
/home/wlf-solar/.arduino15/packages/megaTinyCore/hardware/megaavr/2.6.11/libraries/PTC/src/ptc.c:964
  currConvNode = node;

  PTC_t *pPTC;
  _fastPtr_d(pPTC, &PTC);
  _fastPtr_d(node, node);
  uint8_t analogGain = PTC_GAIN_MAX;
     414:	9f e3       	ldi	r25, 0x3F	; 63
/home/wlf-solar/.arduino15/packages/megaTinyCore/hardware/megaavr/2.6.11/libraries/PTC/src/ptc.c:965
  if (node->stateMachine != PTC_SM_NOINIT_CAL) {
     416:	88 23       	and	r24, r24
     418:	19 f0       	breq	.+6      	; 0x420 <__LOCK_REGION_LENGTH__+0x20>
/home/wlf-solar/.arduino15/packages/megaTinyCore/hardware/megaavr/2.6.11/libraries/PTC/src/ptc.c:966
    analogGain = node->hw_gain_ovs / 16;  // A little workaround as >> 4 is kinda broken sometimes.
     41a:	92 85       	ldd	r25, Z+10	; 0x0a
     41c:	92 95       	swap	r25
     41e:	9f 70       	andi	r25, 0x0F	; 15
/home/wlf-solar/.arduino15/packages/megaTinyCore/hardware/megaavr/2.6.11/libraries/PTC/src/ptc.c:969
  }

  uint8_t chargeDelay = node->hw_csd;
     420:	83 85       	ldd	r24, Z+11	; 0x0b
/home/wlf-solar/.arduino15/packages/megaTinyCore/hardware/megaavr/2.6.11/libraries/PTC/src/ptc.c:972

  #if defined(__PTC_Tiny__)
  pPTC->XBM  = node->hw_xCh_bm[0];
     422:	25 81       	ldd	r18, Z+5	; 0x05
     424:	30 e0       	ldi	r19, 0x00	; 0
     426:	2e a3       	std	Y+38, r18	; 0x26
     428:	3f a3       	std	Y+39, r19	; 0x27
/home/wlf-solar/.arduino15/packages/megaTinyCore/hardware/megaavr/2.6.11/libraries/PTC/src/ptc.c:973
  pPTC->YBM  = node->hw_yCh_bm[0];
     42a:	26 81       	ldd	r18, Z+6	; 0x06
     42c:	30 e0       	ldi	r19, 0x00	; 0
     42e:	2a a7       	std	Y+42, r18	; 0x2a
     430:	3b a7       	std	Y+43, r19	; 0x2b
/home/wlf-solar/.arduino15/packages/megaTinyCore/hardware/megaavr/2.6.11/libraries/PTC/src/ptc.c:975

  if (chargeDelay < 0x1B) {
     432:	8b 31       	cpi	r24, 0x1B	; 27
     434:	e8 f4       	brcc	.+58     	; 0x470 <__LOCK_REGION_LENGTH__+0x70>
/home/wlf-solar/.arduino15/packages/megaTinyCore/hardware/megaavr/2.6.11/libraries/PTC/src/ptc.c:976
    chargeDelay += 4;
     436:	8c 5f       	subi	r24, 0xFC	; 252
/home/wlf-solar/.arduino15/packages/megaTinyCore/hardware/megaavr/2.6.11/libraries/PTC/src/ptc.c:980
  } else {
    chargeDelay = 0x1F;
  }
  pPTC->SAMPCTRL = chargeDelay;
     438:	8d 83       	std	Y+5, r24	; 0x05
/home/wlf-solar/.arduino15/packages/megaTinyCore/hardware/megaavr/2.6.11/libraries/PTC/src/ptc.c:983


  pPTC->CTRLC = (node->hw_rsel_presc & 0x0F) | ADC_REFSEL_VDDREF_gc;
     43a:	81 85       	ldd	r24, Z+9	; 0x09
     43c:	28 2f       	mov	r18, r24
     43e:	2f 70       	andi	r18, 0x0F	; 15
     440:	20 61       	ori	r18, 0x10	; 16
     442:	2a 83       	std	Y+2, r18	; 0x02
/home/wlf-solar/.arduino15/packages/megaTinyCore/hardware/megaavr/2.6.11/libraries/PTC/src/ptc.c:984
  pPTC->CTRLP |= 0x03;
     444:	28 8d       	ldd	r18, Y+24	; 0x18
     446:	23 60       	ori	r18, 0x03	; 3
     448:	28 8f       	std	Y+24, r18	; 0x18
/home/wlf-solar/.arduino15/packages/megaTinyCore/hardware/megaavr/2.6.11/libraries/PTC/src/ptc.c:1024
  } else {
    pPTC->CTRL_SHIELD = 0;
  }
  #endif

  pPTC->COMP = node->hw_compCaps;
     44a:	27 81       	ldd	r18, Z+7	; 0x07
     44c:	30 85       	ldd	r19, Z+8	; 0x08
     44e:	2a 8f       	std	Y+26, r18	; 0x1a
     450:	3b 8f       	std	Y+27, r19	; 0x1b
/home/wlf-solar/.arduino15/packages/megaTinyCore/hardware/megaavr/2.6.11/libraries/PTC/src/ptc.c:1025
  pPTC->AGAIN = analogGain;
     452:	9c 8f       	std	Y+28, r25	; 0x1c
/home/wlf-solar/.arduino15/packages/megaTinyCore/hardware/megaavr/2.6.11/libraries/PTC/src/ptc.c:1026
  pPTC->CTRLB = node->hw_gain_ovs & 0x0F;
     454:	92 85       	ldd	r25, Z+10	; 0x0a
     456:	9f 70       	andi	r25, 0x0F	; 15
     458:	99 83       	std	Y+1, r25	; 0x01
/home/wlf-solar/.arduino15/packages/megaTinyCore/hardware/megaavr/2.6.11/libraries/PTC/src/ptc.c:1027
  pPTC->RSEL = node->hw_rsel_presc / 16;
     45a:	82 95       	swap	r24
     45c:	8f 70       	andi	r24, 0x0F	; 15
     45e:	89 8f       	std	Y+25, r24	; 0x19
/home/wlf-solar/.arduino15/packages/megaTinyCore/hardware/megaavr/2.6.11/libraries/PTC/src/ptc.c:1029

  pPTC->CTRLA = ADC_RUNSTBY_bm | ADC_ENABLE_bm; /* 0x81 */
     460:	81 e8       	ldi	r24, 0x81	; 129
     462:	88 83       	st	Y, r24
/home/wlf-solar/.arduino15/packages/megaTinyCore/hardware/megaavr/2.6.11/libraries/PTC/src/ptc.c:1031

  if (0 == node->state.low_power) {
     464:	84 85       	ldd	r24, Z+12	; 0x0c
     466:	82 fd       	sbrc	r24, 2
     468:	05 c0       	rjmp	.+10     	; 0x474 <__LOCK_REGION_LENGTH__+0x74>
/home/wlf-solar/.arduino15/packages/megaTinyCore/hardware/megaavr/2.6.11/libraries/PTC/src/ptc.c:1032
    pPTC->COMMAND = 0x01; // Normal operation: Manual Start
     46a:	81 e0       	ldi	r24, 0x01	; 1
     46c:	88 87       	std	Y+8, r24	; 0x08
     46e:	bc cf       	rjmp	.-136    	; 0x3e8 <ptc_start_conversion+0x22>
/home/wlf-solar/.arduino15/packages/megaTinyCore/hardware/megaavr/2.6.11/libraries/PTC/src/ptc.c:978
  pPTC->YBM  = node->hw_yCh_bm[0];

  if (chargeDelay < 0x1B) {
    chargeDelay += 4;
  } else {
    chargeDelay = 0x1F;
     470:	8f e1       	ldi	r24, 0x1F	; 31
     472:	e2 cf       	rjmp	.-60     	; 0x438 <__LOCK_REGION_LENGTH__+0x38>
/home/wlf-solar/.arduino15/packages/megaTinyCore/hardware/megaavr/2.6.11/libraries/PTC/src/ptc.c:1034
  pPTC->CTRLA = ADC_RUNSTBY_bm | ADC_ENABLE_bm; /* 0x81 */

  if (0 == node->state.low_power) {
    pPTC->COMMAND = 0x01; // Normal operation: Manual Start
  } else {
    pPTC->EVCTRL = 0x01;  // Low Power: Start by positive flank on event
     474:	81 e0       	ldi	r24, 0x01	; 1
     476:	89 87       	std	Y+9, r24	; 0x09
     478:	b7 cf       	rjmp	.-146    	; 0x3e8 <ptc_start_conversion+0x22>

0000047a <ptc_process_measurement>:
ptc_process_measurement():
/home/wlf-solar/.arduino15/packages/megaTinyCore/hardware/megaavr/2.6.11/libraries/PTC/src/ptc.c:536


/*
 * Internal functions only below. Not part of the API
 */
void ptc_process_measurement(cap_sensor_t *node) {
     47a:	1f 93       	push	r17
     47c:	cf 93       	push	r28
     47e:	df 93       	push	r29
     480:	fc 01       	movw	r30, r24
/home/wlf-solar/.arduino15/packages/megaTinyCore/hardware/megaavr/2.6.11/libraries/PTC/src/ptc.c:537
  if (node->state.error) {
     482:	84 85       	ldd	r24, Z+12	; 0x0c
     484:	80 fd       	sbrc	r24, 0
     486:	9e c0       	rjmp	.+316    	; 0x5c4 <ptc_process_measurement+0x14a>
/home/wlf-solar/.arduino15/packages/megaTinyCore/hardware/megaavr/2.6.11/libraries/PTC/src/ptc.c:541
    return;
  }

  if (node->state.data_ready != 0) {
     488:	83 ff       	sbrs	r24, 3
     48a:	9c c0       	rjmp	.+312    	; 0x5c4 <ptc_process_measurement+0x14a>
/home/wlf-solar/.arduino15/packages/megaTinyCore/hardware/megaavr/2.6.11/libraries/PTC/src/ptc.c:542
    node->state.data_ready = 0;
     48c:	87 7f       	andi	r24, 0xF7	; 247
     48e:	84 87       	std	Z+12, r24	; 0x0c
ptc_process_node_sm():
/home/wlf-solar/.arduino15/packages/megaTinyCore/hardware/megaavr/2.6.11/libraries/PTC/src/ptc.c:551
}



void ptc_process_node_sm(cap_sensor_t *node) {
  uint16_t nodeData   = node->sensorData;
     490:	c5 85       	ldd	r28, Z+13	; 0x0d
     492:	d6 85       	ldd	r29, Z+14	; 0x0e
/home/wlf-solar/.arduino15/packages/megaTinyCore/hardware/megaavr/2.6.11/libraries/PTC/src/ptc.c:552
  uint8_t  nodeSM     = node->stateMachine;
     494:	95 89       	ldd	r25, Z+21	; 0x15
/home/wlf-solar/.arduino15/packages/megaTinyCore/hardware/megaavr/2.6.11/libraries/PTC/src/ptc.c:553
  uint8_t  lastChange = node->lastStateChange;
     496:	76 89       	ldd	r23, Z+22	; 0x16
/home/wlf-solar/.arduino15/packages/megaTinyCore/hardware/megaavr/2.6.11/libraries/PTC/src/ptc.c:557
  uint16_t reference  = node->reference;
  int16_t  nodeDelta  = nodeData - reference;

  if (nodeSM == PTC_SM_NOINIT_CAL) {         /* Beginning here */
     498:	91 11       	cpse	r25, r1
     49a:	98 c0       	rjmp	.+304    	; 0x5cc <ptc_process_measurement+0x152>
ptc_process_calibrate():
/home/wlf-solar/.arduino15/packages/megaTinyCore/hardware/megaavr/2.6.11/libraries/PTC/src/ptc.c:688

uint8_t ptc_process_calibrate(cap_sensor_t *node) {
  uint16_t rawData = node->sensorData;

  #if defined(__PTC_Tiny__)
  uint16_t compensation = node->hw_compCaps;
     49c:	17 81       	ldd	r17, Z+7	; 0x07
     49e:	30 85       	ldd	r19, Z+8	; 0x08
/home/wlf-solar/.arduino15/packages/megaTinyCore/hardware/megaavr/2.6.11/libraries/PTC/src/ptc.c:692
  uint8_t cc_accurate =             compensation        & 0x0F;
  uint8_t cc_fine = ((uint8_t) compensation >> 4)  & 0x0F;
  uint8_t cc_coarse = (uint8_t)(compensation >> 8)  & 0x0F;
  uint8_t cc_add_rough = (uint8_t)(compensation >> 8)  & 0xC0;
     4a0:	63 2f       	mov	r22, r19
     4a2:	60 7c       	andi	r22, 0xC0	; 192
/home/wlf-solar/.arduino15/packages/megaTinyCore/hardware/megaavr/2.6.11/libraries/PTC/src/ptc.c:699

  //uint8_t err = 0;

  int8_t dirOvf;
  int8_t dir;
  if (rawData > 0x01FF) {
     4a4:	c1 15       	cp	r28, r1
     4a6:	22 e0       	ldi	r18, 0x02	; 2
     4a8:	d2 07       	cpc	r29, r18
     4aa:	18 f1       	brcs	.+70     	; 0x4f2 <ptc_process_measurement+0x78>
/home/wlf-solar/.arduino15/packages/megaTinyCore/hardware/megaavr/2.6.11/libraries/PTC/src/ptc.c:700
    rawData = rawData - 0x1FF;
     4ac:	ce 01       	movw	r24, r28
     4ae:	8f 5f       	subi	r24, 0xFF	; 255
     4b0:	91 40       	sbci	r25, 0x01	; 1
/home/wlf-solar/.arduino15/packages/megaTinyCore/hardware/megaavr/2.6.11/libraries/PTC/src/ptc.c:701
    if (rawData < 4) {
     4b2:	84 30       	cpi	r24, 0x04	; 4
     4b4:	91 05       	cpc	r25, r1
     4b6:	08 f4       	brcc	.+2      	; 0x4ba <ptc_process_measurement+0x40>
     4b8:	79 c0       	rjmp	.+242    	; 0x5ac <ptc_process_measurement+0x132>
/home/wlf-solar/.arduino15/packages/megaTinyCore/hardware/megaavr/2.6.11/libraries/PTC/src/ptc.c:705
      return PTC_LIB_CALIB_DONE;
    }

    if (node->type & NODE_MUTUAL_bm) {
     4ba:	22 81       	ldd	r18, Z+2	; 0x02
     4bc:	20 ff       	sbrs	r18, 0
     4be:	05 c0       	rjmp	.+10     	; 0x4ca <ptc_process_measurement+0x50>
/home/wlf-solar/.arduino15/packages/megaTinyCore/hardware/megaavr/2.6.11/libraries/PTC/src/ptc.c:708
      dir = -1;
      dirOvf = -6;
      rawData /= 2;
     4c0:	96 95       	lsr	r25
     4c2:	87 95       	ror	r24
ptc_process_measurement():
/home/wlf-solar/.arduino15/packages/megaTinyCore/hardware/megaavr/2.6.11/libraries/PTC/src/ptc.c:730
    if (node->type & NODE_MUTUAL_bm) {
      dir = 1;
      dirOvf = 6;
      rawData /= 2;
    } else {
      dir = -1;
     4c4:	5f ef       	ldi	r21, 0xFF	; 255
/home/wlf-solar/.arduino15/packages/megaTinyCore/hardware/megaavr/2.6.11/libraries/PTC/src/ptc.c:731
      dirOvf = -6;
     4c6:	ba ef       	ldi	r27, 0xFA	; 250
     4c8:	0a c0       	rjmp	.+20     	; 0x4de <ptc_process_measurement+0x64>
ptc_process_calibrate():
/home/wlf-solar/.arduino15/packages/megaTinyCore/hardware/megaavr/2.6.11/libraries/PTC/src/ptc.c:712
      dirOvf = -6;
      rawData /= 2;
    } else {
      dir = 1;
      dirOvf = 6;
      if (rawData > 0x0100) {
     4ca:	81 30       	cpi	r24, 0x01	; 1
     4cc:	21 e0       	ldi	r18, 0x01	; 1
     4ce:	92 07       	cpc	r25, r18
     4d0:	20 f0       	brcs	.+8      	; 0x4da <ptc_process_measurement+0x60>
/home/wlf-solar/.arduino15/packages/megaTinyCore/hardware/megaavr/2.6.11/libraries/PTC/src/ptc.c:714
        if (cc_add_rough <= 0xC0) {
          cc_add_rough = (cc_add_rough + 0x40);
     4d2:	60 5c       	subi	r22, 0xC0	; 192
/home/wlf-solar/.arduino15/packages/megaTinyCore/hardware/megaavr/2.6.11/libraries/PTC/src/ptc.c:715
          rawData -= 0xF0;
     4d4:	ce 01       	movw	r24, r28
     4d6:	8f 5e       	subi	r24, 0xEF	; 239
     4d8:	92 40       	sbci	r25, 0x02	; 2
ptc_process_measurement():
/home/wlf-solar/.arduino15/packages/megaTinyCore/hardware/megaavr/2.6.11/libraries/PTC/src/ptc.c:710
    if (node->type & NODE_MUTUAL_bm) {
      dir = -1;
      dirOvf = -6;
      rawData /= 2;
    } else {
      dir = 1;
     4da:	51 e0       	ldi	r21, 0x01	; 1
/home/wlf-solar/.arduino15/packages/megaTinyCore/hardware/megaavr/2.6.11/libraries/PTC/src/ptc.c:711
      dirOvf = 6;
     4dc:	b6 e0       	ldi	r27, 0x06	; 6
ptc_process_calibrate():
/home/wlf-solar/.arduino15/packages/megaTinyCore/hardware/megaavr/2.6.11/libraries/PTC/src/ptc.c:690
  uint16_t rawData = node->sensorData;

  #if defined(__PTC_Tiny__)
  uint16_t compensation = node->hw_compCaps;
  uint8_t cc_accurate =             compensation        & 0x0F;
  uint8_t cc_fine = ((uint8_t) compensation >> 4)  & 0x0F;
     4de:	a1 2f       	mov	r26, r17
     4e0:	a2 95       	swap	r26
     4e2:	af 70       	andi	r26, 0x0F	; 15
/home/wlf-solar/.arduino15/packages/megaTinyCore/hardware/megaavr/2.6.11/libraries/PTC/src/ptc.c:691
  uint8_t cc_coarse = (uint8_t)(compensation >> 8)  & 0x0F;
     4e4:	43 2f       	mov	r20, r19
     4e6:	4f 70       	andi	r20, 0x0F	; 15
/home/wlf-solar/.arduino15/packages/megaTinyCore/hardware/megaavr/2.6.11/libraries/PTC/src/ptc.c:693
  uint8_t cc_add_rough = (uint8_t)(compensation >> 8)  & 0xC0;
  uint8_t cc_rough  = (uint8_t)(compensation >> 12) & 0x03;
     4e8:	32 95       	swap	r19
     4ea:	3f 70       	andi	r19, 0x0F	; 15
     4ec:	23 2f       	mov	r18, r19
     4ee:	23 70       	andi	r18, 0x03	; 3
     4f0:	3a c0       	rjmp	.+116    	; 0x566 <ptc_process_measurement+0xec>
/home/wlf-solar/.arduino15/packages/megaTinyCore/hardware/megaavr/2.6.11/libraries/PTC/src/ptc.c:720
          rawData -= 0xF0;
        }
      }
    }
  } else {
    rawData = 0x1FF - rawData;
     4f2:	8f ef       	ldi	r24, 0xFF	; 255
     4f4:	91 e0       	ldi	r25, 0x01	; 1
     4f6:	8c 1b       	sub	r24, r28
     4f8:	9d 0b       	sbc	r25, r29
/home/wlf-solar/.arduino15/packages/megaTinyCore/hardware/megaavr/2.6.11/libraries/PTC/src/ptc.c:721
    if (rawData < 4) {
     4fa:	84 30       	cpi	r24, 0x04	; 4
     4fc:	91 05       	cpc	r25, r1
     4fe:	08 f4       	brcc	.+2      	; 0x502 <ptc_process_measurement+0x88>
     500:	55 c0       	rjmp	.+170    	; 0x5ac <ptc_process_measurement+0x132>
/home/wlf-solar/.arduino15/packages/megaTinyCore/hardware/megaavr/2.6.11/libraries/PTC/src/ptc.c:725
      return PTC_LIB_CALIB_DONE;
    }

    if (node->type & NODE_MUTUAL_bm) {
     502:	22 81       	ldd	r18, Z+2	; 0x02
     504:	20 ff       	sbrs	r18, 0
     506:	03 c0       	rjmp	.+6      	; 0x50e <ptc_process_measurement+0x94>
/home/wlf-solar/.arduino15/packages/megaTinyCore/hardware/megaavr/2.6.11/libraries/PTC/src/ptc.c:728
      dir = 1;
      dirOvf = 6;
      rawData /= 2;
     508:	96 95       	lsr	r25
     50a:	87 95       	ror	r24
     50c:	e6 cf       	rjmp	.-52     	; 0x4da <ptc_process_measurement+0x60>
/home/wlf-solar/.arduino15/packages/megaTinyCore/hardware/megaavr/2.6.11/libraries/PTC/src/ptc.c:732
    } else {
      dir = -1;
      dirOvf = -6;
      if (rawData > 0x0100) {
     50e:	81 30       	cpi	r24, 0x01	; 1
     510:	21 e0       	ldi	r18, 0x01	; 1
     512:	92 07       	cpc	r25, r18
     514:	b8 f2       	brcs	.-82     	; 0x4c4 <ptc_process_measurement+0x4a>
/home/wlf-solar/.arduino15/packages/megaTinyCore/hardware/megaavr/2.6.11/libraries/PTC/src/ptc.c:733
        if (cc_add_rough >= 0x40) {
     516:	60 34       	cpi	r22, 0x40	; 64
     518:	a8 f2       	brcs	.-86     	; 0x4c4 <ptc_process_measurement+0x4a>
/home/wlf-solar/.arduino15/packages/megaTinyCore/hardware/megaavr/2.6.11/libraries/PTC/src/ptc.c:734
          cc_add_rough = (cc_add_rough - 0x40);
     51a:	60 54       	subi	r22, 0x40	; 64
/home/wlf-solar/.arduino15/packages/megaTinyCore/hardware/megaavr/2.6.11/libraries/PTC/src/ptc.c:735
          rawData -= 0xF0;
     51c:	8f e0       	ldi	r24, 0x0F	; 15
     51e:	91 e0       	ldi	r25, 0x01	; 1
     520:	8c 1b       	sub	r24, r28
     522:	9d 0b       	sbc	r25, r29
     524:	cf cf       	rjmp	.-98     	; 0x4c4 <ptc_process_measurement+0x4a>
/home/wlf-solar/.arduino15/packages/megaTinyCore/hardware/megaavr/2.6.11/libraries/PTC/src/ptc.c:743
    }
  }

  while (rawData > 0x0001) {
    while (rawData > 0x00CF) {
      cc_rough += dir;            // this algorithm takes advantage of integer underflow
     526:	35 2f       	mov	r19, r21
     528:	32 0f       	add	r19, r18
/home/wlf-solar/.arduino15/packages/megaTinyCore/hardware/megaavr/2.6.11/libraries/PTC/src/ptc.c:744
      if (cc_rough > 0x03) {      // by checking against >0x03, we can also check for 0xFF aka -1
     52a:	34 30       	cpi	r19, 0x04	; 4
     52c:	30 f4       	brcc	.+12     	; 0x53a <ptc_process_measurement+0xc0>
/home/wlf-solar/.arduino15/packages/megaTinyCore/hardware/megaavr/2.6.11/libraries/PTC/src/ptc.c:748
        cc_rough -= dir;          // thus saving some flash. +/-1 can be made in one insn
        break;                    // by using sub reg with 0xFF or 0x01 in a reg respectively
      }
      rawData -= 0xCF;
     52e:	8f 5c       	subi	r24, 0xCF	; 207
     530:	91 09       	sbc	r25, r1
     532:	23 2f       	mov	r18, r19
/home/wlf-solar/.arduino15/packages/megaTinyCore/hardware/megaavr/2.6.11/libraries/PTC/src/ptc.c:742
      }
    }
  }

  while (rawData > 0x0001) {
    while (rawData > 0x00CF) {
     534:	80 3d       	cpi	r24, 0xD0	; 208
     536:	91 05       	cpc	r25, r1
     538:	b0 f7       	brcc	.-20     	; 0x526 <ptc_process_measurement+0xac>
/home/wlf-solar/.arduino15/packages/megaTinyCore/hardware/megaavr/2.6.11/libraries/PTC/src/ptc.c:751
        break;                    // by using sub reg with 0xFF or 0x01 in a reg respectively
      }
      rawData -= 0xCF;
    }

    while (rawData > 0x0015) {
     53a:	86 31       	cpi	r24, 0x16	; 22
     53c:	91 05       	cpc	r25, r1
     53e:	38 f5       	brcc	.+78     	; 0x58e <ptc_process_measurement+0x114>
/home/wlf-solar/.arduino15/packages/megaTinyCore/hardware/megaavr/2.6.11/libraries/PTC/src/ptc.c:758
      if (cc_coarse > 0x0F) {
        break;
      }
      rawData -= 0x15;
    }
    if (cc_coarse > 0x0F) {
     540:	40 31       	cpi	r20, 0x10	; 16
     542:	28 f0       	brcs	.+10     	; 0x54e <ptc_process_measurement+0xd4>
/home/wlf-solar/.arduino15/packages/megaTinyCore/hardware/megaavr/2.6.11/libraries/PTC/src/ptc.c:759
      cc_rough += dir;
     544:	32 2f       	mov	r19, r18
     546:	35 0f       	add	r19, r21
/home/wlf-solar/.arduino15/packages/megaTinyCore/hardware/megaavr/2.6.11/libraries/PTC/src/ptc.c:760
      if (cc_rough > 0x03) {
     548:	34 30       	cpi	r19, 0x04	; 4
     54a:	30 f1       	brcs	.+76     	; 0x598 <ptc_process_measurement+0x11e>
/home/wlf-solar/.arduino15/packages/megaTinyCore/hardware/megaavr/2.6.11/libraries/PTC/src/ptc.c:762
        cc_rough -= dir;
        cc_coarse -= dir;
     54c:	45 1b       	sub	r20, r21
/home/wlf-solar/.arduino15/packages/megaTinyCore/hardware/megaavr/2.6.11/libraries/PTC/src/ptc.c:769
        cc_coarse -= dirOvf;
      }
    }


    while (rawData > 0x0001) {
     54e:	82 30       	cpi	r24, 0x02	; 2
     550:	91 05       	cpc	r25, r1
     552:	28 f5       	brcc	.+74     	; 0x59e <ptc_process_measurement+0x124>
/home/wlf-solar/.arduino15/packages/megaTinyCore/hardware/megaavr/2.6.11/libraries/PTC/src/ptc.c:777
        break;
      }
      rawData -= 0x02;
    }

    if (cc_fine > 0x0F) {
     554:	a0 31       	cpi	r26, 0x10	; 16
     556:	38 f0       	brcs	.+14     	; 0x566 <ptc_process_measurement+0xec>
/home/wlf-solar/.arduino15/packages/megaTinyCore/hardware/megaavr/2.6.11/libraries/PTC/src/ptc.c:778
      cc_coarse += dir;
     558:	45 0f       	add	r20, r21
/home/wlf-solar/.arduino15/packages/megaTinyCore/hardware/megaavr/2.6.11/libraries/PTC/src/ptc.c:779
      if (cc_coarse > 0x0F) {
     55a:	40 31       	cpi	r20, 0x10	; 16
     55c:	28 f1       	brcs	.+74     	; 0x5a8 <ptc_process_measurement+0x12e>
/home/wlf-solar/.arduino15/packages/megaTinyCore/hardware/megaavr/2.6.11/libraries/PTC/src/ptc.c:780
        cc_rough += dir;
     55e:	25 0f       	add	r18, r21
/home/wlf-solar/.arduino15/packages/megaTinyCore/hardware/megaavr/2.6.11/libraries/PTC/src/ptc.c:781
        if (cc_rough > 0x03) {
     560:	24 30       	cpi	r18, 0x04	; 4
     562:	68 f5       	brcc	.+90     	; 0x5be <ptc_process_measurement+0x144>
/home/wlf-solar/.arduino15/packages/megaTinyCore/hardware/megaavr/2.6.11/libraries/PTC/src/ptc.c:791
            return PTC_LIB_CALIB_TOO_LOW;
          } else {
            return PTC_LIB_CALIB_TOO_HIGH;
          }
        } else {
          cc_coarse -= dirOvf;
     564:	4b 1b       	sub	r20, r27
/home/wlf-solar/.arduino15/packages/megaTinyCore/hardware/megaavr/2.6.11/libraries/PTC/src/ptc.c:741
        }
      }
    }
  }

  while (rawData > 0x0001) {
     566:	82 30       	cpi	r24, 0x02	; 2
     568:	91 05       	cpc	r25, r1
     56a:	20 f7       	brcc	.-56     	; 0x534 <ptc_process_measurement+0xba>
/home/wlf-solar/.arduino15/packages/megaTinyCore/hardware/megaavr/2.6.11/libraries/PTC/src/ptc.c:800
      }
    } /* if (cc_fine > 0x0F) */
  } /* (rawData > 0x0001) */


  cc_fine <<= 4;
     56c:	a2 95       	swap	r26
     56e:	a0 7f       	andi	r26, 0xF0	; 240
/home/wlf-solar/.arduino15/packages/megaTinyCore/hardware/megaavr/2.6.11/libraries/PTC/src/ptc.c:801
  cc_rough <<= 4;
     570:	22 95       	swap	r18
     572:	20 7f       	andi	r18, 0xF0	; 240
/home/wlf-solar/.arduino15/packages/megaTinyCore/hardware/megaavr/2.6.11/libraries/PTC/src/ptc.c:803
  cc_rough |= cc_add_rough;
  cc_rough |= cc_coarse;
     574:	46 2b       	or	r20, r22
     576:	24 2b       	or	r18, r20
/home/wlf-solar/.arduino15/packages/megaTinyCore/hardware/megaavr/2.6.11/libraries/PTC/src/ptc.c:689
uint8_t ptc_process_calibrate(cap_sensor_t *node) {
  uint16_t rawData = node->sensorData;

  #if defined(__PTC_Tiny__)
  uint16_t compensation = node->hw_compCaps;
  uint8_t cc_accurate =             compensation        & 0x0F;
     578:	1f 70       	andi	r17, 0x0F	; 15
/home/wlf-solar/.arduino15/packages/megaTinyCore/hardware/megaavr/2.6.11/libraries/PTC/src/ptc.c:804

  cc_fine <<= 4;
  cc_rough <<= 4;
  cc_rough |= cc_add_rough;
  cc_rough |= cc_coarse;
  cc_fine  |= cc_accurate;
     57a:	a1 2b       	or	r26, r17
/home/wlf-solar/.arduino15/packages/megaTinyCore/hardware/megaavr/2.6.11/libraries/PTC/src/ptc.c:805
  node->hw_compCaps = (uint16_t)((cc_rough << 8) | cc_fine);
     57c:	32 2f       	mov	r19, r18
     57e:	2a 2f       	mov	r18, r26
     580:	27 83       	std	Z+7, r18	; 0x07
     582:	30 87       	std	Z+8, r19	; 0x08
ptc_process_node_sm():
/home/wlf-solar/.arduino15/packages/megaTinyCore/hardware/megaavr/2.6.11/libraries/PTC/src/ptc.c:567
        nodeSM = PTC_SM_LOW_POWER;
      } else {
        nodeSM = PTC_SM_NO_TOUCH;
      }
      ptc_event_cb_calibration(PTC_CB_EVENT_CONV_CALIB, node);
    } else if (PTC_LIB_SUCCESS != retVal || lastChange > 10) {  // if we stay here for over 10 conversions, something didn't went right
     584:	7b 30       	cpi	r23, 0x0B	; 11
     586:	d8 f4       	brcc	.+54     	; 0x5be <ptc_process_measurement+0x144>
/home/wlf-solar/.arduino15/packages/megaTinyCore/hardware/megaavr/2.6.11/libraries/PTC/src/ptc.c:678

  if (node->stateMachine != nodeSM) {
    node->lastStateChange = 0;
    node->stateMachine = nodeSM;
  } else {
    node->lastStateChange = lastChange + 1;
     588:	7f 5f       	subi	r23, 0xFF	; 255
     58a:	76 8b       	std	Z+22, r23	; 0x16
     58c:	1b c0       	rjmp	.+54     	; 0x5c4 <ptc_process_measurement+0x14a>
ptc_process_calibrate():
/home/wlf-solar/.arduino15/packages/megaTinyCore/hardware/megaavr/2.6.11/libraries/PTC/src/ptc.c:752
      }
      rawData -= 0xCF;
    }

    while (rawData > 0x0015) {
      cc_coarse += dir;
     58e:	45 0f       	add	r20, r21
/home/wlf-solar/.arduino15/packages/megaTinyCore/hardware/megaavr/2.6.11/libraries/PTC/src/ptc.c:753
      if (cc_coarse > 0x0F) {
     590:	40 31       	cpi	r20, 0x10	; 16
     592:	c0 f6       	brcc	.-80     	; 0x544 <ptc_process_measurement+0xca>
/home/wlf-solar/.arduino15/packages/megaTinyCore/hardware/megaavr/2.6.11/libraries/PTC/src/ptc.c:756
        break;
      }
      rawData -= 0x15;
     594:	45 97       	sbiw	r24, 0x15	; 21
     596:	d1 cf       	rjmp	.-94     	; 0x53a <ptc_process_measurement+0xc0>
/home/wlf-solar/.arduino15/packages/megaTinyCore/hardware/megaavr/2.6.11/libraries/PTC/src/ptc.c:764
      cc_rough += dir;
      if (cc_rough > 0x03) {
        cc_rough -= dir;
        cc_coarse -= dir;
      } else {
        cc_coarse -= dirOvf;
     598:	4b 1b       	sub	r20, r27
     59a:	23 2f       	mov	r18, r19
     59c:	d8 cf       	rjmp	.-80     	; 0x54e <ptc_process_measurement+0xd4>
/home/wlf-solar/.arduino15/packages/megaTinyCore/hardware/megaavr/2.6.11/libraries/PTC/src/ptc.c:770
      }
    }


    while (rawData > 0x0001) {
      cc_fine += dir;
     59e:	a5 0f       	add	r26, r21
/home/wlf-solar/.arduino15/packages/megaTinyCore/hardware/megaavr/2.6.11/libraries/PTC/src/ptc.c:771
      if (cc_fine > 0x0F) {
     5a0:	a0 31       	cpi	r26, 0x10	; 16
     5a2:	d0 f6       	brcc	.-76     	; 0x558 <ptc_process_measurement+0xde>
/home/wlf-solar/.arduino15/packages/megaTinyCore/hardware/megaavr/2.6.11/libraries/PTC/src/ptc.c:774
        break;
      }
      rawData -= 0x02;
     5a4:	02 97       	sbiw	r24, 0x02	; 2
     5a6:	d3 cf       	rjmp	.-90     	; 0x54e <ptc_process_measurement+0xd4>
/home/wlf-solar/.arduino15/packages/megaTinyCore/hardware/megaavr/2.6.11/libraries/PTC/src/ptc.c:794
          }
        } else {
          cc_coarse -= dirOvf;
        }
      } else {
        cc_fine -= dirOvf;
     5a8:	ab 1b       	sub	r26, r27
     5aa:	dd cf       	rjmp	.-70     	; 0x566 <ptc_process_measurement+0xec>
ptc_process_node_sm():
/home/wlf-solar/.arduino15/packages/megaTinyCore/hardware/megaavr/2.6.11/libraries/PTC/src/ptc.c:560
  int16_t  nodeDelta  = nodeData - reference;

  if (nodeSM == PTC_SM_NOINIT_CAL) {         /* Beginning here */
    uint8_t retVal = ptc_process_calibrate(node);
    if (PTC_LIB_CALIB_DONE == retVal) {
      node->reference = nodeData;
     5ac:	c7 87       	std	Z+15, r28	; 0x0f
     5ae:	d0 8b       	std	Z+16, r29	; 0x10
/home/wlf-solar/.arduino15/packages/megaTinyCore/hardware/megaavr/2.6.11/libraries/PTC/src/ptc.c:561
      if (node->state.low_power) {
     5b0:	84 85       	ldd	r24, Z+12	; 0x0c
     5b2:	82 ff       	sbrs	r24, 2
     5b4:	b3 c0       	rjmp	.+358    	; 0x71c <ptc_process_measurement+0x2a2>
ptc_process_measurement():
/home/wlf-solar/.arduino15/packages/megaTinyCore/hardware/megaavr/2.6.11/libraries/PTC/src/ptc.c:562
        nodeSM = PTC_SM_LOW_POWER;
     5b6:	80 e8       	ldi	r24, 0x80	; 128
ptc_process_node_sm():
/home/wlf-solar/.arduino15/packages/megaTinyCore/hardware/megaavr/2.6.11/libraries/PTC/src/ptc.c:675

  }


  if (node->stateMachine != nodeSM) {
    node->lastStateChange = 0;
     5b8:	16 8a       	std	Z+22, r1	; 0x16
/home/wlf-solar/.arduino15/packages/megaTinyCore/hardware/megaavr/2.6.11/libraries/PTC/src/ptc.c:676
    node->stateMachine = nodeSM;
     5ba:	85 8b       	std	Z+21, r24	; 0x15
     5bc:	03 c0       	rjmp	.+6      	; 0x5c4 <ptc_process_measurement+0x14a>
/home/wlf-solar/.arduino15/packages/megaTinyCore/hardware/megaavr/2.6.11/libraries/PTC/src/ptc.c:568
      } else {
        nodeSM = PTC_SM_NO_TOUCH;
      }
      ptc_event_cb_calibration(PTC_CB_EVENT_CONV_CALIB, node);
    } else if (PTC_LIB_SUCCESS != retVal || lastChange > 10) {  // if we stay here for over 10 conversions, something didn't went right
      node->state.error = 1;
     5be:	84 85       	ldd	r24, Z+12	; 0x0c
     5c0:	81 60       	ori	r24, 0x01	; 1
     5c2:	84 87       	std	Z+12, r24	; 0x0c
ptc_process_measurement():
/home/wlf-solar/.arduino15/packages/megaTinyCore/hardware/megaavr/2.6.11/libraries/PTC/src/ptc.c:546
  if (node->state.data_ready != 0) {
    node->state.data_ready = 0;
    ptc_process_node_sm(node);
    ptc_event_cb_conversion(PTC_CB_EVENT_CONV_CMPL, node);
  }
}
     5c4:	df 91       	pop	r29
     5c6:	cf 91       	pop	r28
     5c8:	1f 91       	pop	r17
     5ca:	08 95       	ret
ptc_process_node_sm():
/home/wlf-solar/.arduino15/packages/megaTinyCore/hardware/megaavr/2.6.11/libraries/PTC/src/ptc.c:554

void ptc_process_node_sm(cap_sensor_t *node) {
  uint16_t nodeData   = node->sensorData;
  uint8_t  nodeSM     = node->stateMachine;
  uint8_t  lastChange = node->lastStateChange;
  uint16_t reference  = node->reference;
     5cc:	47 85       	ldd	r20, Z+15	; 0x0f
     5ce:	50 89       	ldd	r21, Z+16	; 0x10
/home/wlf-solar/.arduino15/packages/megaTinyCore/hardware/megaavr/2.6.11/libraries/PTC/src/ptc.c:555
  int16_t  nodeDelta  = nodeData - reference;
     5d0:	c4 1b       	sub	r28, r20
     5d2:	d5 0b       	sbc	r29, r21
/home/wlf-solar/.arduino15/packages/megaTinyCore/hardware/megaavr/2.6.11/libraries/PTC/src/ptc.c:581
      return;
    } else if (PTC_LIB_SUCCESS == retVal) {
      // calibration didn't finish (yet), but didn't threw an error
    }

  } else if (nodeSM & PTC_SM_RECAL_FLT) {   /* if the delta was really low, we might have to recalibrate the caps */
     5d4:	90 ff       	sbrs	r25, 0
     5d6:	07 c0       	rjmp	.+14     	; 0x5e6 <ptc_process_measurement+0x16c>
/home/wlf-solar/.arduino15/packages/megaTinyCore/hardware/megaavr/2.6.11/libraries/PTC/src/ptc.c:582
    if (nodeDelta > -150) {
     5d8:	cb 36       	cpi	r28, 0x6B	; 107
     5da:	df 4f       	sbci	r29, 0xFF	; 255
     5dc:	9c f4       	brge	.+38     	; 0x604 <ptc_process_measurement+0x18a>
/home/wlf-solar/.arduino15/packages/megaTinyCore/hardware/megaavr/2.6.11/libraries/PTC/src/ptc.c:584
      nodeSM = PTC_SM_NO_TOUCH;
    } else if (lastChange > 3) {
     5de:	74 30       	cpi	r23, 0x04	; 4
     5e0:	98 f2       	brcs	.-90     	; 0x588 <ptc_process_measurement+0x10e>
ptc_process_measurement():
/home/wlf-solar/.arduino15/packages/megaTinyCore/hardware/megaavr/2.6.11/libraries/PTC/src/ptc.c:585
      nodeSM = PTC_SM_NOINIT_CAL;
     5e2:	80 e0       	ldi	r24, 0x00	; 0
     5e4:	e9 cf       	rjmp	.-46     	; 0x5b8 <ptc_process_measurement+0x13e>
ptc_process_node_sm():
/home/wlf-solar/.arduino15/packages/megaTinyCore/hardware/megaavr/2.6.11/libraries/PTC/src/ptc.c:589
    }


  } else if (nodeSM & PTC_SM_NT_LOW_FLT) {   /* no touch, delta below -1, threshold drift */
     5e6:	91 ff       	sbrs	r25, 1
     5e8:	0f c0       	rjmp	.+30     	; 0x608 <ptc_process_measurement+0x18e>
/home/wlf-solar/.arduino15/packages/megaTinyCore/hardware/megaavr/2.6.11/libraries/PTC/src/ptc.c:590
    if (nodeDelta > 0) {
     5ea:	1c 16       	cp	r1, r28
     5ec:	1d 06       	cpc	r1, r29
     5ee:	54 f0       	brlt	.+20     	; 0x604 <ptc_process_measurement+0x18a>
/home/wlf-solar/.arduino15/packages/megaTinyCore/hardware/megaavr/2.6.11/libraries/PTC/src/ptc.c:592
      nodeSM = PTC_SM_NO_TOUCH;
    } else if (nodeDelta < -150) {
     5f0:	ca 36       	cpi	r28, 0x6A	; 106
     5f2:	df 4f       	sbci	r29, 0xFF	; 255
     5f4:	0c f4       	brge	.+2      	; 0x5f8 <ptc_process_measurement+0x17e>
     5f6:	8c c0       	rjmp	.+280    	; 0x710 <ptc_process_measurement+0x296>
/home/wlf-solar/.arduino15/packages/megaTinyCore/hardware/megaavr/2.6.11/libraries/PTC/src/ptc.c:595
      nodeSM = PTC_SM_RECAL_FLT;
    } else if (lastChange > ptc_sm_settings.drift_down_nom) {  /* By using '>' the drift can be disabled with integer overflow */
      node->reference--;
     5f8:	41 50       	subi	r20, 0x01	; 1
     5fa:	51 09       	sbc	r21, r1
/home/wlf-solar/.arduino15/packages/megaTinyCore/hardware/megaavr/2.6.11/libraries/PTC/src/ptc.c:594
  } else if (nodeSM & PTC_SM_NT_LOW_FLT) {   /* no touch, delta below -1, threshold drift */
    if (nodeDelta > 0) {
      nodeSM = PTC_SM_NO_TOUCH;
    } else if (nodeDelta < -150) {
      nodeSM = PTC_SM_RECAL_FLT;
    } else if (lastChange > ptc_sm_settings.drift_down_nom) {  /* By using '>' the drift can be disabled with integer overflow */
     5fc:	70 31       	cpi	r23, 0x10	; 16
     5fe:	20 f2       	brcs	.-120    	; 0x588 <ptc_process_measurement+0x10e>
/home/wlf-solar/.arduino15/packages/megaTinyCore/hardware/megaavr/2.6.11/libraries/PTC/src/ptc.c:622
    if (nodeDelta < 0) {
      nodeSM = PTC_SM_NO_TOUCH;
    } else if (nodeDelta >= node->touch_in_th) {
      nodeSM = PTC_SM_TOUCH_IN_FLT;
    } else if (lastChange > ptc_sm_settings.drift_up_nom) {
      node->reference++;
     600:	47 87       	std	Z+15, r20	; 0x0f
     602:	50 8b       	std	Z+16, r21	; 0x10
ptc_process_measurement():
/home/wlf-solar/.arduino15/packages/megaTinyCore/hardware/megaavr/2.6.11/libraries/PTC/src/ptc.c:583
      // calibration didn't finish (yet), but didn't threw an error
    }

  } else if (nodeSM & PTC_SM_RECAL_FLT) {   /* if the delta was really low, we might have to recalibrate the caps */
    if (nodeDelta > -150) {
      nodeSM = PTC_SM_NO_TOUCH;
     604:	84 e0       	ldi	r24, 0x04	; 4
     606:	1b c0       	rjmp	.+54     	; 0x63e <ptc_process_measurement+0x1c4>
ptc_process_node_sm():
/home/wlf-solar/.arduino15/packages/megaTinyCore/hardware/megaavr/2.6.11/libraries/PTC/src/ptc.c:600
      node->reference--;
      nodeSM = PTC_SM_NO_TOUCH;
    }


  } else if (nodeSM & PTC_SM_NO_TOUCH) {  /* default State, no touch */
     608:	92 ff       	sbrs	r25, 2
     60a:	1c c0       	rjmp	.+56     	; 0x644 <ptc_process_measurement+0x1ca>
/home/wlf-solar/.arduino15/packages/megaTinyCore/hardware/megaavr/2.6.11/libraries/PTC/src/ptc.c:601
    if (nodeDelta < -150) {               /* if the touch value is way too small, something changed with the lines, recalibrate */
     60c:	ca 36       	cpi	r28, 0x6A	; 106
     60e:	8f ef       	ldi	r24, 0xFF	; 255
     610:	d8 07       	cpc	r29, r24
     612:	0c f4       	brge	.+2      	; 0x616 <ptc_process_measurement+0x19c>
     614:	7d c0       	rjmp	.+250    	; 0x710 <ptc_process_measurement+0x296>
/home/wlf-solar/.arduino15/packages/megaTinyCore/hardware/megaavr/2.6.11/libraries/PTC/src/ptc.c:603
      nodeSM = PTC_SM_RECAL_FLT;
    } else if (nodeDelta >= node->touch_in_th) {
     616:	a1 89       	ldd	r26, Z+17	; 0x11
     618:	b2 89       	ldd	r27, Z+18	; 0x12
     61a:	ca 17       	cp	r28, r26
     61c:	db 07       	cpc	r29, r27
     61e:	0c f0       	brlt	.+2      	; 0x622 <ptc_process_measurement+0x1a8>
     620:	7b c0       	rjmp	.+246    	; 0x718 <ptc_process_measurement+0x29e>
/home/wlf-solar/.arduino15/packages/megaTinyCore/hardware/megaavr/2.6.11/libraries/PTC/src/ptc.c:605
      nodeSM = PTC_SM_TOUCH_IN_FLT;
    } else if (reference <= (512 - ptc_sm_settings.force_recal_delta)) {
     622:	4b 56       	subi	r20, 0x6B	; 107
     624:	51 40       	sbci	r21, 0x01	; 1
     626:	4b 32       	cpi	r20, 0x2B	; 43
     628:	51 40       	sbci	r21, 0x01	; 1
     62a:	d8 f6       	brcc	.-74     	; 0x5e2 <ptc_process_measurement+0x168>
/home/wlf-solar/.arduino15/packages/megaTinyCore/hardware/megaavr/2.6.11/libraries/PTC/src/ptc.c:609
      nodeSM = PTC_SM_NOINIT_CAL;
    } else if (reference >= (512 + ptc_sm_settings.force_recal_delta)) {
      nodeSM = PTC_SM_NOINIT_CAL;
    } else if (nodeDelta < -1) {
     62c:	cf 3f       	cpi	r28, 0xFF	; 255
     62e:	8f ef       	ldi	r24, 0xFF	; 255
     630:	d8 07       	cpc	r29, r24
     632:	0c f4       	brge	.+2      	; 0x636 <ptc_process_measurement+0x1bc>
     634:	6f c0       	rjmp	.+222    	; 0x714 <ptc_process_measurement+0x29a>
ptc_process_measurement():
/home/wlf-solar/.arduino15/packages/megaTinyCore/hardware/megaavr/2.6.11/libraries/PTC/src/ptc.c:612
      nodeSM = PTC_SM_NT_LOW_FLT;
    } else if (nodeDelta > 1) {
      nodeSM = PTC_SM_NT_HIGH_FLT;
     636:	88 e0       	ldi	r24, 0x08	; 8
ptc_process_node_sm():
/home/wlf-solar/.arduino15/packages/megaTinyCore/hardware/megaavr/2.6.11/libraries/PTC/src/ptc.c:611
      nodeSM = PTC_SM_NOINIT_CAL;
    } else if (reference >= (512 + ptc_sm_settings.force_recal_delta)) {
      nodeSM = PTC_SM_NOINIT_CAL;
    } else if (nodeDelta < -1) {
      nodeSM = PTC_SM_NT_LOW_FLT;
    } else if (nodeDelta > 1) {
     638:	22 97       	sbiw	r28, 0x02	; 2
     63a:	0c f4       	brge	.+2      	; 0x63e <ptc_process_measurement+0x1c4>
     63c:	a5 cf       	rjmp	.-182    	; 0x588 <ptc_process_measurement+0x10e>
/home/wlf-solar/.arduino15/packages/megaTinyCore/hardware/megaavr/2.6.11/libraries/PTC/src/ptc.c:674


  }


  if (node->stateMachine != nodeSM) {
     63e:	98 13       	cpse	r25, r24
     640:	bb cf       	rjmp	.-138    	; 0x5b8 <ptc_process_measurement+0x13e>
     642:	a2 cf       	rjmp	.-188    	; 0x588 <ptc_process_measurement+0x10e>
/home/wlf-solar/.arduino15/packages/megaTinyCore/hardware/megaavr/2.6.11/libraries/PTC/src/ptc.c:616
    } else if (nodeDelta > 1) {
      nodeSM = PTC_SM_NT_HIGH_FLT;
    }


  } else if (nodeSM & PTC_SM_NT_HIGH_FLT) {
     644:	93 ff       	sbrs	r25, 3
     646:	0e c0       	rjmp	.+28     	; 0x664 <ptc_process_measurement+0x1ea>
/home/wlf-solar/.arduino15/packages/megaTinyCore/hardware/megaavr/2.6.11/libraries/PTC/src/ptc.c:617
    if (nodeDelta < 0) {
     648:	d7 fd       	sbrc	r29, 7
     64a:	dc cf       	rjmp	.-72     	; 0x604 <ptc_process_measurement+0x18a>
/home/wlf-solar/.arduino15/packages/megaTinyCore/hardware/megaavr/2.6.11/libraries/PTC/src/ptc.c:619
      nodeSM = PTC_SM_NO_TOUCH;
    } else if (nodeDelta >= node->touch_in_th) {
     64c:	a1 89       	ldd	r26, Z+17	; 0x11
     64e:	b2 89       	ldd	r27, Z+18	; 0x12
     650:	ca 17       	cp	r28, r26
     652:	db 07       	cpc	r29, r27
     654:	0c f0       	brlt	.+2      	; 0x658 <ptc_process_measurement+0x1de>
     656:	60 c0       	rjmp	.+192    	; 0x718 <ptc_process_measurement+0x29e>
/home/wlf-solar/.arduino15/packages/megaTinyCore/hardware/megaavr/2.6.11/libraries/PTC/src/ptc.c:621
      nodeSM = PTC_SM_TOUCH_IN_FLT;
    } else if (lastChange > ptc_sm_settings.drift_up_nom) {
     658:	70 31       	cpi	r23, 0x10	; 16
     65a:	08 f4       	brcc	.+2      	; 0x65e <ptc_process_measurement+0x1e4>
     65c:	95 cf       	rjmp	.-214    	; 0x588 <ptc_process_measurement+0x10e>
/home/wlf-solar/.arduino15/packages/megaTinyCore/hardware/megaavr/2.6.11/libraries/PTC/src/ptc.c:622
      node->reference++;
     65e:	4f 5f       	subi	r20, 0xFF	; 255
     660:	5f 4f       	sbci	r21, 0xFF	; 255
     662:	ce cf       	rjmp	.-100    	; 0x600 <ptc_process_measurement+0x186>
/home/wlf-solar/.arduino15/packages/megaTinyCore/hardware/megaavr/2.6.11/libraries/PTC/src/ptc.c:627
      nodeSM = PTC_SM_NO_TOUCH;
    }


  } else if (nodeSM & PTC_SM_TOUCH_IN_FLT) {
     664:	94 ff       	sbrs	r25, 4
     666:	08 c0       	rjmp	.+16     	; 0x678 <ptc_process_measurement+0x1fe>
/home/wlf-solar/.arduino15/packages/megaTinyCore/hardware/megaavr/2.6.11/libraries/PTC/src/ptc.c:628
    if (lastChange >= ptc_sm_settings.touched_detect_nom) {
     668:	73 30       	cpi	r23, 0x03	; 3
     66a:	80 f4       	brcc	.+32     	; 0x68c <ptc_process_measurement+0x212>
/home/wlf-solar/.arduino15/packages/megaTinyCore/hardware/megaavr/2.6.11/libraries/PTC/src/ptc.c:631
      nodeSM = PTC_SM_TOUCH_DETECT;
      ptc_event_cb_touch(PTC_CB_EVENT_TOUCH_DETECT, node);
    } else if (nodeDelta < node->touch_in_th) {
     66c:	41 89       	ldd	r20, Z+17	; 0x11
     66e:	52 89       	ldd	r21, Z+18	; 0x12
     670:	c4 17       	cp	r28, r20
     672:	d5 07       	cpc	r29, r21
     674:	3c f2       	brlt	.-114    	; 0x604 <ptc_process_measurement+0x18a>
     676:	88 cf       	rjmp	.-240    	; 0x588 <ptc_process_measurement+0x10e>
/home/wlf-solar/.arduino15/packages/megaTinyCore/hardware/megaavr/2.6.11/libraries/PTC/src/ptc.c:636
      nodeSM = PTC_SM_NO_TOUCH;
    }


  } else if (nodeSM & PTC_SM_TOUCH_OUT_FLT) {
     678:	95 ff       	sbrs	r25, 5
     67a:	0a c0       	rjmp	.+20     	; 0x690 <ptc_process_measurement+0x216>
/home/wlf-solar/.arduino15/packages/megaTinyCore/hardware/megaavr/2.6.11/libraries/PTC/src/ptc.c:637
    if (lastChange >= ptc_sm_settings.untouched_detect_nom) {
     67c:	73 30       	cpi	r23, 0x03	; 3
     67e:	10 f6       	brcc	.-124    	; 0x604 <ptc_process_measurement+0x18a>
/home/wlf-solar/.arduino15/packages/megaTinyCore/hardware/megaavr/2.6.11/libraries/PTC/src/ptc.c:640
      nodeSM = PTC_SM_NO_TOUCH;
      ptc_event_cb_touch(PTC_CB_EVENT_TOUCH_RELEASE, node);
    } else if (nodeDelta > node->touch_in_th) {
     680:	41 89       	ldd	r20, Z+17	; 0x11
     682:	52 89       	ldd	r21, Z+18	; 0x12
     684:	4c 17       	cp	r20, r28
     686:	5d 07       	cpc	r21, r29
     688:	0c f0       	brlt	.+2      	; 0x68c <ptc_process_measurement+0x212>
     68a:	7e cf       	rjmp	.-260    	; 0x588 <ptc_process_measurement+0x10e>
ptc_process_measurement():
/home/wlf-solar/.arduino15/packages/megaTinyCore/hardware/megaavr/2.6.11/libraries/PTC/src/ptc.c:629
    }


  } else if (nodeSM & PTC_SM_TOUCH_IN_FLT) {
    if (lastChange >= ptc_sm_settings.touched_detect_nom) {
      nodeSM = PTC_SM_TOUCH_DETECT;
     68c:	80 e4       	ldi	r24, 0x40	; 64
     68e:	d7 cf       	rjmp	.-82     	; 0x63e <ptc_process_measurement+0x1c4>
ptc_process_node_sm():
/home/wlf-solar/.arduino15/packages/megaTinyCore/hardware/megaavr/2.6.11/libraries/PTC/src/ptc.c:645
    } else if (nodeDelta > node->touch_in_th) {
      nodeSM = PTC_SM_TOUCH_DETECT;
    }


  } else if (nodeSM & PTC_SM_TOUCH_DETECT) {
     690:	96 ff       	sbrs	r25, 6
     692:	0b c0       	rjmp	.+22     	; 0x6aa <ptc_process_measurement+0x230>
/home/wlf-solar/.arduino15/packages/megaTinyCore/hardware/megaavr/2.6.11/libraries/PTC/src/ptc.c:646
    if (lastChange > ptc_sm_settings.touched_max_nom) {
     694:	79 3c       	cpi	r23, 0xC9	; 201
     696:	08 f0       	brcs	.+2      	; 0x69a <ptc_process_measurement+0x220>
     698:	a4 cf       	rjmp	.-184    	; 0x5e2 <ptc_process_measurement+0x168>
/home/wlf-solar/.arduino15/packages/megaTinyCore/hardware/megaavr/2.6.11/libraries/PTC/src/ptc.c:648
      nodeSM = PTC_SM_NOINIT_CAL;
    } else if (nodeDelta < node->touch_out_th) {
     69a:	43 89       	ldd	r20, Z+19	; 0x13
     69c:	54 89       	ldd	r21, Z+20	; 0x14
     69e:	c4 17       	cp	r28, r20
     6a0:	d5 07       	cpc	r29, r21
     6a2:	0c f0       	brlt	.+2      	; 0x6a6 <ptc_process_measurement+0x22c>
     6a4:	71 cf       	rjmp	.-286    	; 0x588 <ptc_process_measurement+0x10e>
ptc_process_measurement():
/home/wlf-solar/.arduino15/packages/megaTinyCore/hardware/megaavr/2.6.11/libraries/PTC/src/ptc.c:649
      nodeSM = PTC_SM_TOUCH_OUT_FLT;
     6a6:	80 e2       	ldi	r24, 0x20	; 32
     6a8:	ca cf       	rjmp	.-108    	; 0x63e <ptc_process_measurement+0x1c4>
ptc_process_node_sm():
/home/wlf-solar/.arduino15/packages/megaTinyCore/hardware/megaavr/2.6.11/libraries/PTC/src/ptc.c:653
    }


  } else if (nodeSM & PTC_SM_LOW_POWER) {
     6aa:	97 ff       	sbrs	r25, 7
     6ac:	6d cf       	rjmp	.-294    	; 0x588 <ptc_process_measurement+0x10e>
/home/wlf-solar/.arduino15/packages/megaTinyCore/hardware/megaavr/2.6.11/libraries/PTC/src/ptc.c:654
    if (0 == node->state.low_power) {
     6ae:	84 85       	ldd	r24, Z+12	; 0x0c
     6b0:	82 fd       	sbrc	r24, 2
     6b2:	1e c0       	rjmp	.+60     	; 0x6f0 <ptc_process_measurement+0x276>
/home/wlf-solar/.arduino15/packages/megaTinyCore/hardware/megaavr/2.6.11/libraries/PTC/src/ptc.c:655
      if (nodeDelta > node->touch_in_th) {
     6b4:	a1 89       	ldd	r26, Z+17	; 0x11
     6b6:	b2 89       	ldd	r27, Z+18	; 0x12
ptc_process_measurement():
/home/wlf-solar/.arduino15/packages/megaTinyCore/hardware/megaavr/2.6.11/libraries/PTC/src/ptc.c:656
        nodeSM = PTC_SM_TOUCH_DETECT;
     6b8:	80 e4       	ldi	r24, 0x40	; 64
ptc_process_node_sm():
/home/wlf-solar/.arduino15/packages/megaTinyCore/hardware/megaavr/2.6.11/libraries/PTC/src/ptc.c:655
    }


  } else if (nodeSM & PTC_SM_LOW_POWER) {
    if (0 == node->state.low_power) {
      if (nodeDelta > node->touch_in_th) {
     6ba:	ac 17       	cp	r26, r28
     6bc:	bd 07       	cpc	r27, r29
     6be:	0c f0       	brlt	.+2      	; 0x6c2 <ptc_process_measurement+0x248>
ptc_process_measurement():
/home/wlf-solar/.arduino15/packages/megaTinyCore/hardware/megaavr/2.6.11/libraries/PTC/src/ptc.c:658
        nodeSM = PTC_SM_TOUCH_DETECT;
      } else {
        nodeSM = PTC_SM_NO_TOUCH;
     6c0:	84 e0       	ldi	r24, 0x04	; 4
ptc_process_node_sm():
/home/wlf-solar/.arduino15/packages/megaTinyCore/hardware/megaavr/2.6.11/libraries/PTC/src/ptc.c:660
      }
      lowPowerNode = NULL;
     6c2:	10 92 3a 3e 	sts	0x3E3A, r1	; 0x803e3a <lowPowerNode>
     6c6:	10 92 3b 3e 	sts	0x3E3B, r1	; 0x803e3b <lowPowerNode+0x1>
/home/wlf-solar/.arduino15/packages/megaTinyCore/hardware/megaavr/2.6.11/libraries/PTC/src/ptc.c:662
    }
    if (nodeDelta < -1) {
     6ca:	cf 3f       	cpi	r28, 0xFF	; 255
     6cc:	2f ef       	ldi	r18, 0xFF	; 255
     6ce:	d2 07       	cpc	r29, r18
     6d0:	8c f4       	brge	.+34     	; 0x6f4 <ptc_process_measurement+0x27a>
/home/wlf-solar/.arduino15/packages/megaTinyCore/hardware/megaavr/2.6.11/libraries/PTC/src/ptc.c:663
      node->reference--;
     6d2:	41 50       	subi	r20, 0x01	; 1
     6d4:	51 09       	sbc	r21, r1
     6d6:	47 87       	std	Z+15, r20	; 0x0f
     6d8:	50 8b       	std	Z+16, r21	; 0x10
/home/wlf-solar/.arduino15/packages/megaTinyCore/hardware/megaavr/2.6.11/libraries/PTC/src/ptc.c:664
      PTC.WINHT--;
     6da:	20 91 14 06 	lds	r18, 0x0614	; 0x800614 <digital_pin_to_bit_mask+0x7f6628>
     6de:	30 91 15 06 	lds	r19, 0x0615	; 0x800615 <digital_pin_to_bit_mask+0x7f6629>
     6e2:	21 50       	subi	r18, 0x01	; 1
     6e4:	31 09       	sbc	r19, r1
/home/wlf-solar/.arduino15/packages/megaTinyCore/hardware/megaavr/2.6.11/libraries/PTC/src/ptc.c:667
    } else if (nodeDelta > 1) {
      node->reference++;
      PTC.WINHT++;
     6e6:	20 93 14 06 	sts	0x0614, r18	; 0x800614 <digital_pin_to_bit_mask+0x7f6628>
     6ea:	30 93 15 06 	sts	0x0615, r19	; 0x800615 <digital_pin_to_bit_mask+0x7f6629>
     6ee:	a7 cf       	rjmp	.-178    	; 0x63e <ptc_process_measurement+0x1c4>
/home/wlf-solar/.arduino15/packages/megaTinyCore/hardware/megaavr/2.6.11/libraries/PTC/src/ptc.c:654
      nodeSM = PTC_SM_TOUCH_OUT_FLT;
    }


  } else if (nodeSM & PTC_SM_LOW_POWER) {
    if (0 == node->state.low_power) {
     6f0:	89 2f       	mov	r24, r25
     6f2:	eb cf       	rjmp	.-42     	; 0x6ca <ptc_process_measurement+0x250>
/home/wlf-solar/.arduino15/packages/megaTinyCore/hardware/megaavr/2.6.11/libraries/PTC/src/ptc.c:665
      lowPowerNode = NULL;
    }
    if (nodeDelta < -1) {
      node->reference--;
      PTC.WINHT--;
    } else if (nodeDelta > 1) {
     6f4:	22 97       	sbiw	r28, 0x02	; 2
     6f6:	0c f4       	brge	.+2      	; 0x6fa <ptc_process_measurement+0x280>
     6f8:	a2 cf       	rjmp	.-188    	; 0x63e <ptc_process_measurement+0x1c4>
/home/wlf-solar/.arduino15/packages/megaTinyCore/hardware/megaavr/2.6.11/libraries/PTC/src/ptc.c:666
      node->reference++;
     6fa:	4f 5f       	subi	r20, 0xFF	; 255
     6fc:	5f 4f       	sbci	r21, 0xFF	; 255
     6fe:	47 87       	std	Z+15, r20	; 0x0f
     700:	50 8b       	std	Z+16, r21	; 0x10
/home/wlf-solar/.arduino15/packages/megaTinyCore/hardware/megaavr/2.6.11/libraries/PTC/src/ptc.c:667
      PTC.WINHT++;
     702:	20 91 14 06 	lds	r18, 0x0614	; 0x800614 <digital_pin_to_bit_mask+0x7f6628>
     706:	30 91 15 06 	lds	r19, 0x0615	; 0x800615 <digital_pin_to_bit_mask+0x7f6629>
     70a:	2f 5f       	subi	r18, 0xFF	; 255
     70c:	3f 4f       	sbci	r19, 0xFF	; 255
     70e:	eb cf       	rjmp	.-42     	; 0x6e6 <ptc_process_measurement+0x26c>
ptc_process_measurement():
/home/wlf-solar/.arduino15/packages/megaTinyCore/hardware/megaavr/2.6.11/libraries/PTC/src/ptc.c:593

  } else if (nodeSM & PTC_SM_NT_LOW_FLT) {   /* no touch, delta below -1, threshold drift */
    if (nodeDelta > 0) {
      nodeSM = PTC_SM_NO_TOUCH;
    } else if (nodeDelta < -150) {
      nodeSM = PTC_SM_RECAL_FLT;
     710:	81 e0       	ldi	r24, 0x01	; 1
     712:	95 cf       	rjmp	.-214    	; 0x63e <ptc_process_measurement+0x1c4>
/home/wlf-solar/.arduino15/packages/megaTinyCore/hardware/megaavr/2.6.11/libraries/PTC/src/ptc.c:610
    } else if (reference <= (512 - ptc_sm_settings.force_recal_delta)) {
      nodeSM = PTC_SM_NOINIT_CAL;
    } else if (reference >= (512 + ptc_sm_settings.force_recal_delta)) {
      nodeSM = PTC_SM_NOINIT_CAL;
    } else if (nodeDelta < -1) {
      nodeSM = PTC_SM_NT_LOW_FLT;
     714:	82 e0       	ldi	r24, 0x02	; 2
     716:	93 cf       	rjmp	.-218    	; 0x63e <ptc_process_measurement+0x1c4>
/home/wlf-solar/.arduino15/packages/megaTinyCore/hardware/megaavr/2.6.11/libraries/PTC/src/ptc.c:604

  } else if (nodeSM & PTC_SM_NO_TOUCH) {  /* default State, no touch */
    if (nodeDelta < -150) {               /* if the touch value is way too small, something changed with the lines, recalibrate */
      nodeSM = PTC_SM_RECAL_FLT;
    } else if (nodeDelta >= node->touch_in_th) {
      nodeSM = PTC_SM_TOUCH_IN_FLT;
     718:	80 e1       	ldi	r24, 0x10	; 16
     71a:	91 cf       	rjmp	.-222    	; 0x63e <ptc_process_measurement+0x1c4>
/home/wlf-solar/.arduino15/packages/megaTinyCore/hardware/megaavr/2.6.11/libraries/PTC/src/ptc.c:564
    if (PTC_LIB_CALIB_DONE == retVal) {
      node->reference = nodeData;
      if (node->state.low_power) {
        nodeSM = PTC_SM_LOW_POWER;
      } else {
        nodeSM = PTC_SM_NO_TOUCH;
     71c:	84 e0       	ldi	r24, 0x04	; 4
     71e:	4c cf       	rjmp	.-360    	; 0x5b8 <ptc_process_measurement+0x13e>

00000720 <colorForIndex(unsigned char)>:
_Z13colorForIndexh():
/home/wlf-solar/Documents/bsides-leeds-2026-badge/firmware/firmware.ino:375

static const uint8_t MEMORY_START_LEVEL = 3;

RgbColor colorForIndex(uint8_t colorIndex)
{
  switch (colorIndex) {
     720:	81 30       	cpi	r24, 0x01	; 1
     722:	41 f0       	breq	.+16     	; 0x734 <colorForIndex(unsigned char)+0x14>
     724:	20 f0       	brcs	.+8      	; 0x72e <colorForIndex(unsigned char)+0xe>
     726:	82 30       	cpi	r24, 0x02	; 2
     728:	49 f0       	breq	.+18     	; 0x73c <colorForIndex(unsigned char)+0x1c>
     72a:	60 e0       	ldi	r22, 0x00	; 0
     72c:	01 c0       	rjmp	.+2      	; 0x730 <colorForIndex(unsigned char)+0x10>
/home/wlf-solar/Documents/bsides-leeds-2026-badge/firmware/firmware.ino:377
    case 0:
      return COLOR_RED;
     72e:	6e e1       	ldi	r22, 0x1E	; 30
     730:	70 e0       	ldi	r23, 0x00	; 0
     732:	02 c0       	rjmp	.+4      	; 0x738 <colorForIndex(unsigned char)+0x18>
/home/wlf-solar/Documents/bsides-leeds-2026-badge/firmware/firmware.ino:379
    case 1:
      return COLOR_GREEN;
     734:	60 e0       	ldi	r22, 0x00	; 0
     736:	7e e1       	ldi	r23, 0x1E	; 30
     738:	80 e0       	ldi	r24, 0x00	; 0
/home/wlf-solar/Documents/bsides-leeds-2026-badge/firmware/firmware.ino:385
    case 2:
      return COLOR_BLUE;
    default:
      return COLOR_OFF;
  }
}
     73a:	08 95       	ret
/home/wlf-solar/Documents/bsides-leeds-2026-badge/firmware/firmware.ino:381
    case 0:
      return COLOR_RED;
    case 1:
      return COLOR_GREEN;
    case 2:
      return COLOR_BLUE;
     73c:	60 e0       	ldi	r22, 0x00	; 0
     73e:	70 e0       	ldi	r23, 0x00	; 0
     740:	8e e1       	ldi	r24, 0x1E	; 30
     742:	08 95       	ret

00000744 <setSequenceSlotColor(unsigned char, unsigned char)>:
_Z20setSequenceSlotColorhh():
/home/wlf-solar/Documents/bsides-leeds-2026-badge/firmware/firmware.ino:564
}



void setSequenceSlotColor(uint8_t slotIndex, uint8_t colorIndex)
{
     744:	cf 93       	push	r28
     746:	c8 2f       	mov	r28, r24
     748:	86 2f       	mov	r24, r22
/home/wlf-solar/Documents/bsides-leeds-2026-badge/firmware/firmware.ino:565
  const RgbColor color = colorForIndex(colorIndex);
     74a:	ea df       	rcall	.-44     	; 0x720 <colorForIndex(unsigned char)>
     74c:	47 2f       	mov	r20, r23
/home/wlf-solar/Documents/bsides-leeds-2026-badge/firmware/firmware.ino:566
  ledStrip.setPixelColor(slotIndex, color.red, color.green, color.blue);
     74e:	28 2f       	mov	r18, r24
     750:	8c 2f       	mov	r24, r28
     752:	90 e0       	ldi	r25, 0x00	; 0
/home/wlf-solar/Documents/bsides-leeds-2026-badge/firmware/firmware.ino:567
}
     754:	cf 91       	pop	r28
/home/wlf-solar/Documents/bsides-leeds-2026-badge/firmware/firmware.ino:566


void setSequenceSlotColor(uint8_t slotIndex, uint8_t colorIndex)
{
  const RgbColor color = colorForIndex(colorIndex);
  ledStrip.setPixelColor(slotIndex, color.red, color.green, color.blue);
     756:	f4 cc       	rjmp	.-1560   	; 0x140 <tinyNeoPixel::setPixelColor(unsigned int, unsigned char, unsigned char, unsigned char) [clone .constprop.18]>

00000758 <setAllLeds(unsigned char, unsigned char, unsigned char, bool)>:
_Z10setAllLedshhhb():
/home/wlf-solar/Documents/bsides-leeds-2026-badge/firmware/firmware.ino:148
    ptc_node_set_thresholds(&touchButtons[buttonIndex], 80, 10);
  }
}

void setAllLeds(uint8_t red, uint8_t green, uint8_t blue, bool show = false)
{
     758:	ef 92       	push	r14
     75a:	ff 92       	push	r15
     75c:	0f 93       	push	r16
     75e:	1f 93       	push	r17
     760:	cf 93       	push	r28
     762:	df 93       	push	r29
     764:	08 2f       	mov	r16, r24
     766:	f6 2e       	mov	r15, r22
     768:	e4 2e       	mov	r14, r20
     76a:	12 2f       	mov	r17, r18
     76c:	d0 e0       	ldi	r29, 0x00	; 0
     76e:	c0 e0       	ldi	r28, 0x00	; 0
/home/wlf-solar/Documents/bsides-leeds-2026-badge/firmware/firmware.ino:150
  for (uint8_t ledIndex = 0; ledIndex < NUM_LEDS; ++ledIndex) {
    ledStrip.setPixelColor(ledIndex, red, green, blue);
     770:	2e 2d       	mov	r18, r14
     772:	4f 2d       	mov	r20, r15
     774:	60 2f       	mov	r22, r16
     776:	ce 01       	movw	r24, r28
     778:	e3 dc       	rcall	.-1594   	; 0x140 <tinyNeoPixel::setPixelColor(unsigned int, unsigned char, unsigned char, unsigned char) [clone .constprop.18]>
     77a:	21 96       	adiw	r28, 0x01	; 1
/home/wlf-solar/Documents/bsides-leeds-2026-badge/firmware/firmware.ino:149
  }
}

void setAllLeds(uint8_t red, uint8_t green, uint8_t blue, bool show = false)
{
  for (uint8_t ledIndex = 0; ledIndex < NUM_LEDS; ++ledIndex) {
     77c:	c2 31       	cpi	r28, 0x12	; 18
     77e:	d1 05       	cpc	r29, r1
     780:	b9 f7       	brne	.-18     	; 0x770 <setAllLeds(unsigned char, unsigned char, unsigned char, bool)+0x18>
/home/wlf-solar/Documents/bsides-leeds-2026-badge/firmware/firmware.ino:153
    ledStrip.setPixelColor(ledIndex, red, green, blue);
  }

  if (show) {
     782:	11 23       	and	r17, r17
     784:	39 f0       	breq	.+14     	; 0x794 <setAllLeds(unsigned char, unsigned char, unsigned char, bool)+0x3c>
/home/wlf-solar/Documents/bsides-leeds-2026-badge/firmware/firmware.ino:156
    ledStrip.show();
  }
}
     786:	df 91       	pop	r29
     788:	cf 91       	pop	r28
     78a:	1f 91       	pop	r17
     78c:	0f 91       	pop	r16
     78e:	ff 90       	pop	r15
     790:	ef 90       	pop	r14
/home/wlf-solar/Documents/bsides-leeds-2026-badge/firmware/firmware.ino:154
  for (uint8_t ledIndex = 0; ledIndex < NUM_LEDS; ++ledIndex) {
    ledStrip.setPixelColor(ledIndex, red, green, blue);
  }

  if (show) {
    ledStrip.show();
     792:	92 cd       	rjmp	.-1244   	; 0x2b8 <tinyNeoPixel::show() [clone .constprop.20]>
/home/wlf-solar/Documents/bsides-leeds-2026-badge/firmware/firmware.ino:156
  }
}
     794:	df 91       	pop	r29
     796:	cf 91       	pop	r28
     798:	1f 91       	pop	r17
     79a:	0f 91       	pop	r16
     79c:	ff 90       	pop	r15
     79e:	ef 90       	pop	r14
     7a0:	08 95       	ret

000007a2 <setAllLeds(RgbColor, bool)>:
_Z10setAllLeds8RgbColorb():
/home/wlf-solar/Documents/bsides-leeds-2026-badge/firmware/firmware.ino:159

void setAllLeds(RgbColor color, bool show = false)
{
     7a2:	96 2f       	mov	r25, r22
     7a4:	67 2f       	mov	r22, r23
     7a6:	24 2f       	mov	r18, r20
/home/wlf-solar/Documents/bsides-leeds-2026-badge/firmware/firmware.ino:160
  setAllLeds(color.red, color.green, color.blue, show);
     7a8:	48 2f       	mov	r20, r24
     7aa:	89 2f       	mov	r24, r25
     7ac:	d5 cf       	rjmp	.-86     	; 0x758 <setAllLeds(unsigned char, unsigned char, unsigned char, bool)>

000007ae <loopingEyes(unsigned int, unsigned char, unsigned char, unsigned char) [clone .constprop.10]>:
_Z11loopingEyesjhhh.constprop.10():
/home/wlf-solar/Documents/bsides-leeds-2026-badge/firmware/firmware.ino:274
  }

  return elapsedMs;
}

uint8_t loopingEyes(uint16_t step, uint8_t red, uint8_t green, uint8_t blue)
     7ae:	0f 93       	push	r16
     7b0:	1f 93       	push	r17
     7b2:	cf 93       	push	r28
     7b4:	df 93       	push	r29
     7b6:	ec 01       	movw	r28, r24
     7b8:	16 2f       	mov	r17, r22
     7ba:	04 2f       	mov	r16, r20
/home/wlf-solar/Documents/bsides-leeds-2026-badge/firmware/firmware.ino:276
{
  setAllLeds(COLOR_OFF);
     7bc:	60 91 d1 9f 	lds	r22, 0x9FD1	; 0x809fd1 <__bss_end+0x60e1>
     7c0:	70 91 d2 9f 	lds	r23, 0x9FD2	; 0x809fd2 <__bss_end+0x60e2>
     7c4:	80 91 d3 9f 	lds	r24, 0x9FD3	; 0x809fd3 <__bss_end+0x60e3>
     7c8:	40 e0       	ldi	r20, 0x00	; 0
     7ca:	eb df       	rcall	.-42     	; 0x7a2 <setAllLeds(RgbColor, bool)>
/home/wlf-solar/Documents/bsides-leeds-2026-badge/firmware/firmware.ino:278

  const uint8_t ledIndex = step % 9;
     7cc:	ce 01       	movw	r24, r28
     7ce:	69 e0       	ldi	r22, 0x09	; 9
     7d0:	70 e0       	ldi	r23, 0x00	; 0
     7d2:	65 db       	rcall	.-2358   	; 0xfffffe9e <__eeprom_end+0xff7efe9e>
     7d4:	ec 01       	movw	r28, r24
/home/wlf-solar/Documents/bsides-leeds-2026-badge/firmware/firmware.ino:279
  ledStrip.setPixelColor(ledIndex, red, green, blue);
     7d6:	20 2f       	mov	r18, r16
     7d8:	40 e0       	ldi	r20, 0x00	; 0
     7da:	61 2f       	mov	r22, r17
     7dc:	b1 dc       	rcall	.-1694   	; 0x140 <tinyNeoPixel::setPixelColor(unsigned int, unsigned char, unsigned char, unsigned char) [clone .constprop.18]>
/home/wlf-solar/Documents/bsides-leeds-2026-badge/firmware/firmware.ino:280
  ledStrip.setPixelColor(17 - ledIndex, red, green, blue);
     7de:	20 2f       	mov	r18, r16
     7e0:	40 e0       	ldi	r20, 0x00	; 0
     7e2:	61 2f       	mov	r22, r17
     7e4:	81 e1       	ldi	r24, 0x11	; 17
     7e6:	90 e0       	ldi	r25, 0x00	; 0
     7e8:	8c 1b       	sub	r24, r28
     7ea:	9d 0b       	sbc	r25, r29
     7ec:	a9 dc       	rcall	.-1710   	; 0x140 <tinyNeoPixel::setPixelColor(unsigned int, unsigned char, unsigned char, unsigned char) [clone .constprop.18]>
/home/wlf-solar/Documents/bsides-leeds-2026-badge/firmware/firmware.ino:281
  ledStrip.show();
     7ee:	64 dd       	rcall	.-1336   	; 0x2b8 <tinyNeoPixel::show() [clone .constprop.20]>
/home/wlf-solar/Documents/bsides-leeds-2026-badge/firmware/firmware.ino:284

  return 100;
}
     7f0:	84 e6       	ldi	r24, 0x64	; 100
     7f2:	df 91       	pop	r29
     7f4:	cf 91       	pop	r28
     7f6:	1f 91       	pop	r17
     7f8:	0f 91       	pop	r16
     7fa:	08 95       	ret

000007fc <knightRider(unsigned int, unsigned char, unsigned char, unsigned char) [clone .constprop.6]>:
_Z11knightRiderjhhh.constprop.6():
/home/wlf-solar/Documents/bsides-leeds-2026-badge/firmware/firmware.ino:663
  13, 16,
  14, 15,
  15, 255,
};

uint8_t knightRider(uint16_t step, uint8_t red, uint8_t green, uint8_t blue)
     7fc:	0f 93       	push	r16
     7fe:	1f 93       	push	r17
     800:	cf 93       	push	r28
     802:	df 93       	push	r29
     804:	16 2f       	mov	r17, r22
     806:	04 2f       	mov	r16, r20
/home/wlf-solar/Documents/bsides-leeds-2026-badge/firmware/firmware.ino:665
{
  uint8_t position = step % 20;
     808:	64 e1       	ldi	r22, 0x14	; 20
     80a:	70 e0       	ldi	r23, 0x00	; 0
     80c:	48 db       	rcall	.-2416   	; 0xfffffe9e <__eeprom_end+0xff7efe9e>
     80e:	28 2f       	mov	r18, r24
/home/wlf-solar/Documents/bsides-leeds-2026-badge/firmware/firmware.ino:666
  if (position > 10) {
     810:	8b 30       	cpi	r24, 0x0B	; 11
     812:	10 f0       	brcs	.+4      	; 0x818 <knightRider(unsigned int, unsigned char, unsigned char, unsigned char) [clone .constprop.6]+0x1c>
/home/wlf-solar/Documents/bsides-leeds-2026-badge/firmware/firmware.ino:667
    position = 20 - position;
     814:	24 e1       	ldi	r18, 0x14	; 20
     816:	28 1b       	sub	r18, r24
/home/wlf-solar/Documents/bsides-leeds-2026-badge/firmware/firmware.ino:670
  }

  const uint8_t tableIndex = position * 2;
     818:	22 0f       	add	r18, r18
/home/wlf-solar/Documents/bsides-leeds-2026-badge/firmware/firmware.ino:671
  const uint8_t firstLed = pgm_read_byte(&KNIGHT_RIDER_LEDS[tableIndex]);
     81a:	30 e0       	ldi	r19, 0x00	; 0
     81c:	f9 01       	movw	r30, r18
     81e:	ed 53       	subi	r30, 0x3D	; 61
     820:	ff 4f       	sbci	r31, 0xFF	; 255
     822:	d4 91       	lpm	r29, Z
/home/wlf-solar/Documents/bsides-leeds-2026-badge/firmware/firmware.ino:672
  const uint8_t secondLed = pgm_read_byte(&KNIGHT_RIDER_LEDS[tableIndex + 1]);
     824:	f9 01       	movw	r30, r18
     826:	ec 53       	subi	r30, 0x3C	; 60
     828:	ff 4f       	sbci	r31, 0xFF	; 255
     82a:	c4 91       	lpm	r28, Z
/home/wlf-solar/Documents/bsides-leeds-2026-badge/firmware/firmware.ino:674

  setAllLeds(COLOR_OFF);
     82c:	60 91 d1 9f 	lds	r22, 0x9FD1	; 0x809fd1 <__bss_end+0x60e1>
     830:	70 91 d2 9f 	lds	r23, 0x9FD2	; 0x809fd2 <__bss_end+0x60e2>
     834:	80 91 d3 9f 	lds	r24, 0x9FD3	; 0x809fd3 <__bss_end+0x60e3>
     838:	40 e0       	ldi	r20, 0x00	; 0
     83a:	b3 df       	rcall	.-154    	; 0x7a2 <setAllLeds(RgbColor, bool)>
/home/wlf-solar/Documents/bsides-leeds-2026-badge/firmware/firmware.ino:675
  ledStrip.setPixelColor(firstLed, red, green, blue);
     83c:	20 e0       	ldi	r18, 0x00	; 0
     83e:	40 2f       	mov	r20, r16
     840:	61 2f       	mov	r22, r17
     842:	8d 2f       	mov	r24, r29
     844:	90 e0       	ldi	r25, 0x00	; 0
     846:	7c dc       	rcall	.-1800   	; 0x140 <tinyNeoPixel::setPixelColor(unsigned int, unsigned char, unsigned char, unsigned char) [clone .constprop.18]>
/home/wlf-solar/Documents/bsides-leeds-2026-badge/firmware/firmware.ino:677

  if (secondLed != 255) {
     848:	cf 3f       	cpi	r28, 0xFF	; 255
     84a:	31 f0       	breq	.+12     	; 0x858 <knightRider(unsigned int, unsigned char, unsigned char, unsigned char) [clone .constprop.6]+0x5c>
/home/wlf-solar/Documents/bsides-leeds-2026-badge/firmware/firmware.ino:678
    ledStrip.setPixelColor(secondLed, red, green, blue);
     84c:	20 e0       	ldi	r18, 0x00	; 0
     84e:	40 2f       	mov	r20, r16
     850:	61 2f       	mov	r22, r17
     852:	8c 2f       	mov	r24, r28
     854:	90 e0       	ldi	r25, 0x00	; 0
     856:	74 dc       	rcall	.-1816   	; 0x140 <tinyNeoPixel::setPixelColor(unsigned int, unsigned char, unsigned char, unsigned char) [clone .constprop.18]>
/home/wlf-solar/Documents/bsides-leeds-2026-badge/firmware/firmware.ino:681
  }

  ledStrip.show();
     858:	2f dd       	rcall	.-1442   	; 0x2b8 <tinyNeoPixel::show() [clone .constprop.20]>
/home/wlf-solar/Documents/bsides-leeds-2026-badge/firmware/firmware.ino:683
  return 100;
}
     85a:	84 e6       	ldi	r24, 0x64	; 100
     85c:	df 91       	pop	r29
     85e:	cf 91       	pop	r28
     860:	1f 91       	pop	r17
     862:	0f 91       	pop	r16
     864:	08 95       	ret

00000866 <showFindSequenceProgress(unsigned char const*, unsigned char)>:
_Z24showFindSequenceProgressPKhh():
/home/wlf-solar/Documents/bsides-leeds-2026-badge/firmware/firmware.ino:570
  const RgbColor color = colorForIndex(colorIndex);
  ledStrip.setPixelColor(slotIndex, color.red, color.green, color.blue);
}

void showFindSequenceProgress(const uint8_t sequence[], uint8_t foundLength)
{
     866:	ff 92       	push	r15
     868:	0f 93       	push	r16
     86a:	1f 93       	push	r17
     86c:	cf 93       	push	r28
     86e:	df 93       	push	r29
     870:	f8 2e       	mov	r15, r24
     872:	c9 2f       	mov	r28, r25
     874:	d6 2f       	mov	r29, r22
/home/wlf-solar/Documents/bsides-leeds-2026-badge/firmware/firmware.ino:571
  setAllLeds(COLOR_OFF);
     876:	60 91 d1 9f 	lds	r22, 0x9FD1	; 0x809fd1 <__bss_end+0x60e1>
     87a:	70 91 d2 9f 	lds	r23, 0x9FD2	; 0x809fd2 <__bss_end+0x60e2>
     87e:	80 91 d3 9f 	lds	r24, 0x9FD3	; 0x809fd3 <__bss_end+0x60e3>
     882:	40 e0       	ldi	r20, 0x00	; 0
     884:	8e df       	rcall	.-228    	; 0x7a2 <setAllLeds(RgbColor, bool)>
     886:	0f 2d       	mov	r16, r15
     888:	1c 2f       	mov	r17, r28
/home/wlf-solar/Documents/bsides-leeds-2026-badge/firmware/firmware.ino:573

  for (uint8_t sequenceIndex = 0; sequenceIndex < foundLength; ++sequenceIndex) {
     88a:	c0 e0       	ldi	r28, 0x00	; 0
     88c:	cd 17       	cp	r28, r29
     88e:	39 f0       	breq	.+14     	; 0x89e <showFindSequenceProgress(unsigned char const*, unsigned char)+0x38>
/home/wlf-solar/Documents/bsides-leeds-2026-badge/firmware/firmware.ino:574
    setSequenceSlotColor(sequenceIndex, sequence[sequenceIndex]);
     890:	f8 01       	movw	r30, r16
     892:	61 91       	ld	r22, Z+
     894:	8f 01       	movw	r16, r30
     896:	8c 2f       	mov	r24, r28
     898:	55 df       	rcall	.-342    	; 0x744 <setSequenceSlotColor(unsigned char, unsigned char)>
/home/wlf-solar/Documents/bsides-leeds-2026-badge/firmware/firmware.ino:573

void showFindSequenceProgress(const uint8_t sequence[], uint8_t foundLength)
{
  setAllLeds(COLOR_OFF);

  for (uint8_t sequenceIndex = 0; sequenceIndex < foundLength; ++sequenceIndex) {
     89a:	cf 5f       	subi	r28, 0xFF	; 255
     89c:	f7 cf       	rjmp	.-18     	; 0x88c <showFindSequenceProgress(unsigned char const*, unsigned char)+0x26>
/home/wlf-solar/Documents/bsides-leeds-2026-badge/firmware/firmware.ino:578
    setSequenceSlotColor(sequenceIndex, sequence[sequenceIndex]);
  }

  ledStrip.show();
}
     89e:	df 91       	pop	r29
     8a0:	cf 91       	pop	r28
     8a2:	1f 91       	pop	r17
     8a4:	0f 91       	pop	r16
     8a6:	ff 90       	pop	r15
/home/wlf-solar/Documents/bsides-leeds-2026-badge/firmware/firmware.ino:577

  for (uint8_t sequenceIndex = 0; sequenceIndex < foundLength; ++sequenceIndex) {
    setSequenceSlotColor(sequenceIndex, sequence[sequenceIndex]);
  }

  ledStrip.show();
     8a8:	07 cd       	rjmp	.-1522   	; 0x2b8 <tinyNeoPixel::show() [clone .constprop.20]>

000008aa <getPressedTouchMask()>:
_Z19getPressedTouchMaskv():
/home/wlf-solar/Documents/bsides-leeds-2026-badge/firmware/firmware.ino:115
  return nextRandomByte() & 0x07;
}


uint8_t getPressedTouchMask()
{
     8aa:	e4 e4       	ldi	r30, 0x44	; 68
     8ac:	fe e3       	ldi	r31, 0x3E	; 62
     8ae:	30 e0       	ldi	r19, 0x00	; 0
     8b0:	20 e0       	ldi	r18, 0x00	; 0
/home/wlf-solar/Documents/bsides-leeds-2026-badge/firmware/firmware.ino:116
  uint8_t pressedMask = 0;
     8b2:	80 e0       	ldi	r24, 0x00	; 0
/home/wlf-solar/Documents/bsides-leeds-2026-badge/firmware/firmware.ino:120

  for (uint8_t buttonIndex = 0; buttonIndex < NUM_TOUCH_BUTTONS; ++buttonIndex) {
    if (ptc_get_node_touched(&touchButtons[buttonIndex])) {
      pressedMask |= (1 << buttonIndex);
     8b4:	41 e0       	ldi	r20, 0x01	; 1
     8b6:	50 e0       	ldi	r21, 0x00	; 0
ptc_get_node_touched():
/home/wlf-solar/.arduino15/packages/megaTinyCore/hardware/megaavr/2.6.11/libraries/PTC/src/ptc.h:252
inline uint8_t ptc_get_node_touched(cap_sensor_t *node) {
  if (node == NULL) {
    return 0x00;
  }

  if (node->stateMachine & (PTC_SM_TOUCH_DETECT | PTC_SM_TOUCH_OUT_FLT)) {
     8b8:	95 89       	ldd	r25, Z+21	; 0x15
     8ba:	90 76       	andi	r25, 0x60	; 96
     8bc:	39 f0       	breq	.+14     	; 0x8cc <getPressedTouchMask()+0x22>
_Z19getPressedTouchMaskv():
/home/wlf-solar/Documents/bsides-leeds-2026-badge/firmware/firmware.ino:120
     8be:	ba 01       	movw	r22, r20
     8c0:	02 2e       	mov	r0, r18
     8c2:	01 c0       	rjmp	.+2      	; 0x8c6 <getPressedTouchMask()+0x1c>
     8c4:	66 0f       	add	r22, r22
     8c6:	0a 94       	dec	r0
     8c8:	ea f7       	brpl	.-6      	; 0x8c4 <getPressedTouchMask()+0x1a>
     8ca:	86 2b       	or	r24, r22
     8cc:	2f 5f       	subi	r18, 0xFF	; 255
     8ce:	3f 4f       	sbci	r19, 0xFF	; 255
     8d0:	77 96       	adiw	r30, 0x17	; 23
/home/wlf-solar/Documents/bsides-leeds-2026-badge/firmware/firmware.ino:118

uint8_t getPressedTouchMask()
{
  uint8_t pressedMask = 0;

  for (uint8_t buttonIndex = 0; buttonIndex < NUM_TOUCH_BUTTONS; ++buttonIndex) {
     8d2:	26 30       	cpi	r18, 0x06	; 6
     8d4:	31 05       	cpc	r19, r1
     8d6:	81 f7       	brne	.-32     	; 0x8b8 <getPressedTouchMask()+0xe>
/home/wlf-solar/Documents/bsides-leeds-2026-badge/firmware/firmware.ino:125
      pressedMask |= (1 << buttonIndex);
    }
  }

  return pressedMask;
}
     8d8:	08 95       	ret

000008da <showTouchedPads()>:
_Z15showTouchedPadsv():
/home/wlf-solar/Documents/bsides-leeds-2026-badge/firmware/firmware.ino:304
{
  ledStrip.setPixelColor(ledIndex == 0 ? 17 : ledIndex + 8, red, green, blue);
}

void showTouchedPads()
{
     8da:	ef 92       	push	r14
     8dc:	ff 92       	push	r15
     8de:	0f 93       	push	r16
     8e0:	1f 93       	push	r17
     8e2:	cf 93       	push	r28
     8e4:	df 93       	push	r29
/home/wlf-solar/Documents/bsides-leeds-2026-badge/firmware/firmware.ino:305
  const uint8_t pressedMask = getPressedTouchMask();
     8e6:	e1 df       	rcall	.-62     	; 0x8aa <getPressedTouchMask()>
     8e8:	c8 2f       	mov	r28, r24
/home/wlf-solar/Documents/bsides-leeds-2026-badge/firmware/firmware.ino:307

  if (pressedMask & (LEFT_BLUE_MASK | LEFT_RED_MASK | LEFT_GREEN_MASK)) {
     8ea:	87 70       	andi	r24, 0x07	; 7
     8ec:	c9 f0       	breq	.+50     	; 0x920 <showTouchedPads()+0x46>
/home/wlf-solar/Documents/bsides-leeds-2026-badge/firmware/firmware.ino:308
    setLeftEye(
     8ee:	e1 2c       	mov	r14, r1
     8f0:	c0 ff       	sbrs	r28, 0
     8f2:	02 c0       	rjmp	.+4      	; 0x8f8 <showTouchedPads()+0x1e>
     8f4:	24 e1       	ldi	r18, 0x14	; 20
     8f6:	e2 2e       	mov	r14, r18
     8f8:	f1 2c       	mov	r15, r1
     8fa:	c2 ff       	sbrs	r28, 2
     8fc:	02 c0       	rjmp	.+4      	; 0x902 <showTouchedPads()+0x28>
     8fe:	94 e1       	ldi	r25, 0x14	; 20
     900:	f9 2e       	mov	r15, r25
     902:	d0 e0       	ldi	r29, 0x00	; 0
     904:	c1 fd       	sbrc	r28, 1
     906:	d4 e1       	ldi	r29, 0x14	; 20
     908:	10 e0       	ldi	r17, 0x00	; 0
     90a:	00 e0       	ldi	r16, 0x00	; 0
setLeftEye():
/home/wlf-solar/Documents/bsides-leeds-2026-badge/firmware/firmware.ino:289
}

void setLeftEye(uint8_t red, uint8_t green, uint8_t blue, uint8_t offset = 0)
{
  for (uint8_t ledIndex = offset; ledIndex < 9 + offset; ++ledIndex) {
    ledStrip.setPixelColor(ledIndex, red, green, blue);
     90c:	2e 2d       	mov	r18, r14
     90e:	4f 2d       	mov	r20, r15
     910:	6d 2f       	mov	r22, r29
     912:	c8 01       	movw	r24, r16
     914:	15 dc       	rcall	.-2006   	; 0x140 <tinyNeoPixel::setPixelColor(unsigned int, unsigned char, unsigned char, unsigned char) [clone .constprop.18]>
     916:	0f 5f       	subi	r16, 0xFF	; 255
     918:	1f 4f       	sbci	r17, 0xFF	; 255
/home/wlf-solar/Documents/bsides-leeds-2026-badge/firmware/firmware.ino:288
  return 100;
}

void setLeftEye(uint8_t red, uint8_t green, uint8_t blue, uint8_t offset = 0)
{
  for (uint8_t ledIndex = offset; ledIndex < 9 + offset; ++ledIndex) {
     91a:	09 30       	cpi	r16, 0x09	; 9
     91c:	11 05       	cpc	r17, r1
     91e:	b1 f7       	brne	.-20     	; 0x90c <showTouchedPads()+0x32>
_Z15showTouchedPadsv():
/home/wlf-solar/Documents/bsides-leeds-2026-badge/firmware/firmware.ino:315
      (pressedMask & LEFT_GREEN_MASK) ? 20 : 0,
      (pressedMask & LEFT_BLUE_MASK) ? 20 : 0
    );
  }

  if (pressedMask & (RIGHT_BLUE_MASK | RIGHT_RED_MASK | RIGHT_GREEN_MASK)) {
     920:	8c 2f       	mov	r24, r28
     922:	88 73       	andi	r24, 0x38	; 56
     924:	b1 f0       	breq	.+44     	; 0x952 <showTouchedPads()+0x78>
/home/wlf-solar/Documents/bsides-leeds-2026-badge/firmware/firmware.ino:316
    setRightEye(
     926:	f1 2c       	mov	r15, r1
     928:	c5 ff       	sbrs	r28, 5
     92a:	02 c0       	rjmp	.+4      	; 0x930 <showTouchedPads()+0x56>
     92c:	84 e1       	ldi	r24, 0x14	; 20
     92e:	f8 2e       	mov	r15, r24
     930:	04 e1       	ldi	r16, 0x14	; 20
     932:	c3 ff       	sbrs	r28, 3
     934:	00 e0       	ldi	r16, 0x00	; 0
     936:	10 e0       	ldi	r17, 0x00	; 0
     938:	c4 fd       	sbrc	r28, 4
     93a:	14 e1       	ldi	r17, 0x14	; 20
     93c:	c9 e0       	ldi	r28, 0x09	; 9
     93e:	d0 e0       	ldi	r29, 0x00	; 0
setLeftEye():
/home/wlf-solar/Documents/bsides-leeds-2026-badge/firmware/firmware.ino:289
}

void setLeftEye(uint8_t red, uint8_t green, uint8_t blue, uint8_t offset = 0)
{
  for (uint8_t ledIndex = offset; ledIndex < 9 + offset; ++ledIndex) {
    ledStrip.setPixelColor(ledIndex, red, green, blue);
     940:	2f 2d       	mov	r18, r15
     942:	40 2f       	mov	r20, r16
     944:	61 2f       	mov	r22, r17
     946:	ce 01       	movw	r24, r28
     948:	fb db       	rcall	.-2058   	; 0x140 <tinyNeoPixel::setPixelColor(unsigned int, unsigned char, unsigned char, unsigned char) [clone .constprop.18]>
     94a:	21 96       	adiw	r28, 0x01	; 1
/home/wlf-solar/Documents/bsides-leeds-2026-badge/firmware/firmware.ino:288
  return 100;
}

void setLeftEye(uint8_t red, uint8_t green, uint8_t blue, uint8_t offset = 0)
{
  for (uint8_t ledIndex = offset; ledIndex < 9 + offset; ++ledIndex) {
     94c:	c2 31       	cpi	r28, 0x12	; 18
     94e:	d1 05       	cpc	r29, r1
     950:	b9 f7       	brne	.-18     	; 0x940 <showTouchedPads()+0x66>
_Z15showTouchedPadsv():
/home/wlf-solar/Documents/bsides-leeds-2026-badge/firmware/firmware.ino:324
      (pressedMask & RIGHT_BLUE_MASK) ? 20 : 0
    );
  }

  ledStrip.show();
}
     952:	df 91       	pop	r29
     954:	cf 91       	pop	r28
     956:	1f 91       	pop	r17
     958:	0f 91       	pop	r16
     95a:	ff 90       	pop	r15
     95c:	ef 90       	pop	r14
/home/wlf-solar/Documents/bsides-leeds-2026-badge/firmware/firmware.ino:323
      (pressedMask & RIGHT_GREEN_MASK) ? 20 : 0,
      (pressedMask & RIGHT_BLUE_MASK) ? 20 : 0
    );
  }

  ledStrip.show();
     95e:	ac cc       	rjmp	.-1704   	; 0x2b8 <tinyNeoPixel::show() [clone .constprop.20]>

00000960 <nextRandomByte()>:
_Z14nextRandomBytev():
/home/wlf-solar/Documents/bsides-leeds-2026-badge/firmware/firmware.ino:78
  }
}

uint8_t nextRandomByte()
{
  const bool bit = randomState & 1;
     960:	20 91 00 3e 	lds	r18, 0x3E00	; 0x803e00 <__DATA_REGION_ORIGIN__>
     964:	30 91 01 3e 	lds	r19, 0x3E01	; 0x803e01 <__DATA_REGION_ORIGIN__+0x1>
/home/wlf-solar/Documents/bsides-leeds-2026-badge/firmware/firmware.ino:79
  randomState >>= 1;
     968:	c9 01       	movw	r24, r18
     96a:	96 95       	lsr	r25
     96c:	87 95       	ror	r24
/home/wlf-solar/Documents/bsides-leeds-2026-badge/firmware/firmware.ino:81

  if (bit) {
     96e:	20 fd       	sbrc	r18, 0
     970:	07 c0       	rjmp	.+14     	; 0x980 <nextRandomByte()+0x20>
/home/wlf-solar/Documents/bsides-leeds-2026-badge/firmware/firmware.ino:82
    randomState ^= 0xB400u;
     972:	80 93 00 3e 	sts	0x3E00, r24	; 0x803e00 <__DATA_REGION_ORIGIN__>
     976:	90 93 01 3e 	sts	0x3E01, r25	; 0x803e01 <__DATA_REGION_ORIGIN__+0x1>
/home/wlf-solar/Documents/bsides-leeds-2026-badge/firmware/firmware.ino:86
  }

  return (uint8_t)randomState;
}
     97a:	80 91 00 3e 	lds	r24, 0x3E00	; 0x803e00 <__DATA_REGION_ORIGIN__>
     97e:	08 95       	ret
/home/wlf-solar/Documents/bsides-leeds-2026-badge/firmware/firmware.ino:82
{
  const bool bit = randomState & 1;
  randomState >>= 1;

  if (bit) {
    randomState ^= 0xB400u;
     980:	24 eb       	ldi	r18, 0xB4	; 180
     982:	92 27       	eor	r25, r18
     984:	f6 cf       	rjmp	.-20     	; 0x972 <nextRandomByte()+0x12>

00000986 <createRandomSequence(unsigned char*, unsigned char)>:
_Z20createRandomSequencePhh():
/home/wlf-solar/Documents/bsides-leeds-2026-badge/firmware/firmware.ino:463
}

static const uint8_t NUM_SEQUENCE_LEVELS = 10;

void createRandomSequence(uint8_t sequence[], uint8_t sequenceLength)
{
     986:	0f 93       	push	r16
     988:	1f 93       	push	r17
     98a:	cf 93       	push	r28
     98c:	df 93       	push	r29
     98e:	16 2f       	mov	r17, r22
     990:	08 2f       	mov	r16, r24
     992:	ec 01       	movw	r28, r24
randomColorIndex():
/home/wlf-solar/Documents/bsides-leeds-2026-badge/firmware/firmware.ino:92

uint8_t randomColorIndex()
{
  uint8_t value;
  do {
    value = nextRandomByte() & 0x03;
     994:	e5 df       	rcall	.-54     	; 0x960 <nextRandomByte()>
     996:	83 70       	andi	r24, 0x03	; 3
/home/wlf-solar/Documents/bsides-leeds-2026-badge/firmware/firmware.ino:93
  } while (value > 2);
     998:	83 30       	cpi	r24, 0x03	; 3
     99a:	e1 f3       	breq	.-8      	; 0x994 <createRandomSequence(unsigned char*, unsigned char)+0xe>
_Z20createRandomSequencePhh():
/home/wlf-solar/Documents/bsides-leeds-2026-badge/firmware/firmware.ino:465
static const uint8_t NUM_SEQUENCE_LEVELS = 10;

void createRandomSequence(uint8_t sequence[], uint8_t sequenceLength)
{
  for (uint8_t sequenceIndex = 0; sequenceIndex < sequenceLength; ++sequenceIndex) {
    sequence[sequenceIndex] = randomColorIndex();
     99c:	89 93       	st	Y+, r24
/home/wlf-solar/Documents/bsides-leeds-2026-badge/firmware/firmware.ino:464

static const uint8_t NUM_SEQUENCE_LEVELS = 10;

void createRandomSequence(uint8_t sequence[], uint8_t sequenceLength)
{
  for (uint8_t sequenceIndex = 0; sequenceIndex < sequenceLength; ++sequenceIndex) {
     99e:	8c 2f       	mov	r24, r28
     9a0:	80 1b       	sub	r24, r16
     9a2:	81 17       	cp	r24, r17
     9a4:	b8 f3       	brcs	.-18     	; 0x994 <createRandomSequence(unsigned char*, unsigned char)+0xe>
/home/wlf-solar/Documents/bsides-leeds-2026-badge/firmware/firmware.ino:467
    sequence[sequenceIndex] = randomColorIndex();
  }
}
     9a6:	df 91       	pop	r29
     9a8:	cf 91       	pop	r28
     9aa:	1f 91       	pop	r17
     9ac:	0f 91       	pop	r16
     9ae:	08 95       	ret

000009b0 <digitalRead.constprop.36>:
digitalRead.constprop.36():
/home/wlf-solar/.arduino15/packages/megaTinyCore/hardware/megaavr/2.6.11/cores/megatinycore/wiring_digital.c:363

  /* Get port and check valid port */
  PORT_t *port = digitalPinToPortStruct(pin);

  /* Read pin value from PORTx.IN register */
  if (port->IN & bit_mask) {
     9b0:	80 91 08 04 	lds	r24, 0x0408	; 0x800408 <digital_pin_to_bit_mask+0x7f641c>
/home/wlf-solar/.arduino15/packages/megaTinyCore/hardware/megaavr/2.6.11/cores/megatinycore/wiring_digital.c:368
    return HIGH;
  } else {
    return LOW;
  }
}
     9b4:	83 fb       	bst	r24, 3
     9b6:	88 27       	eor	r24, r24
     9b8:	80 f9       	bld	r24, 0
     9ba:	08 95       	ret

000009bc <digitalWrite.constprop.13>:
digitalWrite.constprop.13():
/home/wlf-solar/.arduino15/packages/megaTinyCore/hardware/megaavr/2.6.11/cores/megatinycore/wiring_digital.c:256
  /* Set output to value
  This runs regardless of whether the pin is an output,
  allowing the pin to be staged with
  changed to an output. Code in the wild relies on this behavior. */
  if (val == LOW) { /* If LOW */
    port->OUTCLR = bit_mask;
     9bc:	94 e0       	ldi	r25, 0x04	; 4
/home/wlf-solar/.arduino15/packages/megaTinyCore/hardware/megaavr/2.6.11/cores/megatinycore/wiring_digital.c:255
  PORT_t *port = digitalPinToPortStruct(pin);
  /* Set output to value
  This runs regardless of whether the pin is an output,
  allowing the pin to be staged with
  changed to an output. Code in the wild relies on this behavior. */
  if (val == LOW) { /* If LOW */
     9be:	81 11       	cpse	r24, r1
     9c0:	16 c0       	rjmp	.+44     	; 0x9ee <digitalWrite.constprop.13+0x32>
/home/wlf-solar/.arduino15/packages/megaTinyCore/hardware/megaavr/2.6.11/cores/megatinycore/wiring_digital.c:256
    port->OUTCLR = bit_mask;
     9c2:	90 93 26 04 	sts	0x0426, r25	; 0x800426 <digital_pin_to_bit_mask+0x7f643a>
/home/wlf-solar/.arduino15/packages/megaTinyCore/hardware/megaavr/2.6.11/cores/megatinycore/wiring_digital.c:280
  } else {
    port->OUTSET = bit_mask;
  }

  /* Input direction */
  if (!(port->DIR & bit_mask)) {
     9c6:	90 91 20 04 	lds	r25, 0x0420	; 0x800420 <digital_pin_to_bit_mask+0x7f6434>
     9ca:	92 fd       	sbrc	r25, 2
     9cc:	0a c0       	rjmp	.+20     	; 0x9e2 <digitalWrite.constprop.13+0x26>
/home/wlf-solar/.arduino15/packages/megaTinyCore/hardware/megaavr/2.6.11/cores/megatinycore/wiring_digital.c:287
    uint8_t bit_pos = digitalPinToBitPosition(pin);
    /* Calculate where pin control register is */
    volatile uint8_t *pin_ctrl_reg = getPINnCTRLregister(port, bit_pos);

    /* Save system status and disable interrupts */
    uint8_t status = SREG;
     9ce:	9f b7       	in	r25, 0x3f	; 63
/home/wlf-solar/.arduino15/packages/megaTinyCore/hardware/megaavr/2.6.11/cores/megatinycore/wiring_digital.c:288
    cli();
     9d0:	f8 94       	cli
/home/wlf-solar/.arduino15/packages/megaTinyCore/hardware/megaavr/2.6.11/cores/megatinycore/wiring_digital.c:290

    if (val == LOW) {
     9d2:	81 11       	cpse	r24, r1
     9d4:	0f c0       	rjmp	.+30     	; 0x9f4 <digitalWrite.constprop.13+0x38>
/home/wlf-solar/.arduino15/packages/megaTinyCore/hardware/megaavr/2.6.11/cores/megatinycore/wiring_digital.c:292
      /* Disable pullup */
      *pin_ctrl_reg &= ~PORT_PULLUPEN_bm;
     9d6:	80 91 32 04 	lds	r24, 0x0432	; 0x800432 <digital_pin_to_bit_mask+0x7f6446>
     9da:	87 7f       	andi	r24, 0xF7	; 247
/home/wlf-solar/.arduino15/packages/megaTinyCore/hardware/megaavr/2.6.11/cores/megatinycore/wiring_digital.c:295
    } else {
      /* Enable pull-up */
      *pin_ctrl_reg |= PORT_PULLUPEN_bm;
     9dc:	80 93 32 04 	sts	0x0432, r24	; 0x800432 <digital_pin_to_bit_mask+0x7f6446>
/home/wlf-solar/.arduino15/packages/megaTinyCore/hardware/megaavr/2.6.11/cores/megatinycore/wiring_digital.c:299
    }

    /* Restore system status */
    SREG = status;
     9e0:	9f bf       	out	0x3f, r25	; 63
turnOffPWM():
/home/wlf-solar/.arduino15/packages/megaTinyCore/hardware/megaavr/2.6.11/cores/megatinycore/wiring_digital.c:142
          } else {
            // Otherwise, it's WO3-5. These will always be on 0b00hhh000,. Here since we ARE working with a high half timer, we need to just leftshift it once.
            bit_mask <<= 1;
          }
        #endif // End if 8 vs normal parts
        TCA0.SPLIT.CTRLB &= ~bit_mask;
     9e2:	80 91 01 0a 	lds	r24, 0x0A01	; 0x800a01 <digital_pin_to_bit_mask+0x7f6a15>
     9e6:	8b 7f       	andi	r24, 0xFB	; 251
     9e8:	80 93 01 0a 	sts	0x0A01, r24	; 0x800a01 <digital_pin_to_bit_mask+0x7f6a15>
digitalWrite.constprop.13():
/home/wlf-solar/.arduino15/packages/megaTinyCore/hardware/megaavr/2.6.11/cores/megatinycore/wiring_digital.c:312
   * analogWritten() 255, then digitallyWritten() to HIGH, which
   * would turn it off for the time between turnOffPWM() and
   * PORT->OUTCLR)
   * Since there's no penalty, why make a glitch we don't have to? */
  turnOffPWM(pin);
}
     9ec:	08 95       	ret
/home/wlf-solar/.arduino15/packages/megaTinyCore/hardware/megaavr/2.6.11/cores/megatinycore/wiring_digital.c:276
    // val will now be 0 (LOW) if the toggling made it LOW
    // or bit_mask if not. And further down, we only need to
    // know if it's
  /* If HIGH OR  > TOGGLE  */
  } else {
    port->OUTSET = bit_mask;
     9ee:	90 93 25 04 	sts	0x0425, r25	; 0x800425 <digital_pin_to_bit_mask+0x7f6439>
     9f2:	e9 cf       	rjmp	.-46     	; 0x9c6 <digitalWrite.constprop.13+0xa>
/home/wlf-solar/.arduino15/packages/megaTinyCore/hardware/megaavr/2.6.11/cores/megatinycore/wiring_digital.c:295
    if (val == LOW) {
      /* Disable pullup */
      *pin_ctrl_reg &= ~PORT_PULLUPEN_bm;
    } else {
      /* Enable pull-up */
      *pin_ctrl_reg |= PORT_PULLUPEN_bm;
     9f4:	80 91 32 04 	lds	r24, 0x0432	; 0x800432 <digital_pin_to_bit_mask+0x7f6446>
     9f8:	88 60       	ori	r24, 0x08	; 8
     9fa:	f0 cf       	rjmp	.-32     	; 0x9dc <digitalWrite.constprop.13+0x20>

000009fc <pinMode>:
pinMode():
/home/wlf-solar/.arduino15/packages/megaTinyCore/hardware/megaavr/2.6.11/cores/megatinycore/wiring_digital.c:44
}

void pinMode(uint8_t pin, uint8_t mode) {
  check_valid_digital_pin(pin);         /* generate compile error if a constant that is not a valid pin is used as the pin */
  check_valid_pin_mode(mode);           /* generate compile error if a constant that is not a valid pin mode is used as the mode */
  uint8_t bit_mask = digitalPinToBitMask(pin);
     9fc:	8c 30       	cpi	r24, 0x0C	; 12
     9fe:	f0 f4       	brcc	.+60     	; 0xa3c <pinMode+0x40>
check_valid_digital_pin():
/home/wlf-solar/.arduino15/packages/megaTinyCore/hardware/megaavr/2.6.11/cores/megatinycore/Arduino.h:888
#if !defined(NUM_TOTAL_PINS)
  #define NUM_TOTAL_PINS                (NUM_DIGITAL_PINS) /* Used the same way as NUM_DIGITAL_PINS. so it doesn't mean what it's named  - I didn't make the convention*/
#endif

inline __attribute__((always_inline)) void check_valid_digital_pin(pin_size_t pin) {
  if (__builtin_constant_p(pin)) {
     a00:	90 e0       	ldi	r25, 0x00	; 0
pinMode():
/home/wlf-solar/.arduino15/packages/megaTinyCore/hardware/megaavr/2.6.11/cores/megatinycore/wiring_digital.c:44
     a02:	fc 01       	movw	r30, r24
     a04:	e4 51       	subi	r30, 0x14	; 20
     a06:	f0 46       	sbci	r31, 0x60	; 96
     a08:	20 81       	ld	r18, Z
/home/wlf-solar/.arduino15/packages/megaTinyCore/hardware/megaavr/2.6.11/cores/megatinycore/wiring_digital.c:45
  if ((bit_mask == NOT_A_PIN) || (mode > INPUT_PULLUP)) {
     a0a:	2f 3f       	cpi	r18, 0xFF	; 255
     a0c:	b9 f0       	breq	.+46     	; 0xa3c <pinMode+0x40>
/home/wlf-solar/.arduino15/packages/megaTinyCore/hardware/megaavr/2.6.11/cores/megatinycore/wiring_digital.c:48
    return;                             /* ignore invalid pins passed at runtime */
  }
  volatile uint8_t * port_base = (volatile uint8_t *) (uint16_t) ((&PORTA) + digitalPinToPort(pin));
     a0e:	fc 01       	movw	r30, r24
     a10:	e0 52       	subi	r30, 0x20	; 32
     a12:	f0 46       	sbci	r31, 0x60	; 96
     a14:	e0 81       	ld	r30, Z
     a16:	30 e2       	ldi	r19, 0x20	; 32
     a18:	e3 9f       	mul	r30, r19
     a1a:	f0 01       	movw	r30, r0
     a1c:	11 24       	eor	r1, r1
     a1e:	fc 5f       	subi	r31, 0xFC	; 252
/home/wlf-solar/.arduino15/packages/megaTinyCore/hardware/megaavr/2.6.11/cores/megatinycore/wiring_digital.c:49
  if (mode & 0x01) {
     a20:	61 30       	cpi	r22, 0x01	; 1
     a22:	69 f4       	brne	.+26     	; 0xa3e <pinMode+0x42>
/home/wlf-solar/.arduino15/packages/megaTinyCore/hardware/megaavr/2.6.11/cores/megatinycore/wiring_digital.c:51
    // OUTPUT mode, so write DIRSET with the mask.
    *(port_base + 1) = bit_mask;
     a24:	21 83       	std	Z+1, r18	; 0x01
/home/wlf-solar/.arduino15/packages/megaTinyCore/hardware/megaavr/2.6.11/cores/megatinycore/wiring_digital.c:77
  // then load with displacement 2 clocks. IFF the compiler puts this pointer into Y or Z, it is faster and smaller
  // by 2 bytes and one clock. And let's hope it is, because the code above would suck too if it was in X.
  // Handwritten assembly that exploited the knowledge that there will never be a carry would save 1 word and 1 clock.
  // and could probably save at least several times that in initializing the port_base pointer. But if you're using
  // pinMode you probably don't care.
  port_base += (uint8_t) digitalPinToBitPosition(pin);
     a26:	8c 52       	subi	r24, 0x2C	; 44
     a28:	90 46       	sbci	r25, 0x60	; 96
     a2a:	dc 01       	movw	r26, r24
     a2c:	8c 91       	ld	r24, X
     a2e:	e8 0f       	add	r30, r24
     a30:	f1 1d       	adc	r31, r1
/home/wlf-solar/.arduino15/packages/megaTinyCore/hardware/megaavr/2.6.11/cores/megatinycore/wiring_digital.c:78
  bit_mask = *(port_base + 0x10);
     a32:	80 89       	ldd	r24, Z+16	; 0x10
/home/wlf-solar/.arduino15/packages/megaTinyCore/hardware/megaavr/2.6.11/cores/megatinycore/wiring_digital.c:79
  if (mode & 2) {
     a34:	61 30       	cpi	r22, 0x01	; 1
     a36:	29 f0       	breq	.+10     	; 0xa42 <pinMode+0x46>
/home/wlf-solar/.arduino15/packages/megaTinyCore/hardware/megaavr/2.6.11/cores/megatinycore/wiring_digital.c:80
    bit_mask |= 0x08;
     a38:	88 60       	ori	r24, 0x08	; 8
/home/wlf-solar/.arduino15/packages/megaTinyCore/hardware/megaavr/2.6.11/cores/megatinycore/wiring_digital.c:84
  } else {
    bit_mask &= 0xF7;
  }
  *(port_base + 0x10) = bit_mask;
     a3a:	80 8b       	std	Z+16, r24	; 0x10
/home/wlf-solar/.arduino15/packages/megaTinyCore/hardware/megaavr/2.6.11/cores/megatinycore/wiring_digital.c:85
}
     a3c:	08 95       	ret
/home/wlf-solar/.arduino15/packages/megaTinyCore/hardware/megaavr/2.6.11/cores/megatinycore/wiring_digital.c:53
  volatile uint8_t * port_base = (volatile uint8_t *) (uint16_t) ((&PORTA) + digitalPinToPort(pin));
  if (mode & 0x01) {
    // OUTPUT mode, so write DIRSET with the mask.
    *(port_base + 1) = bit_mask;
  } else { // otherwise it's input so we write DIRCLR
    *(port_base + 2) = bit_mask;
     a3e:	22 83       	std	Z+2, r18	; 0x02
     a40:	f2 cf       	rjmp	.-28     	; 0xa26 <pinMode+0x2a>
/home/wlf-solar/.arduino15/packages/megaTinyCore/hardware/megaavr/2.6.11/cores/megatinycore/wiring_digital.c:82
  port_base += (uint8_t) digitalPinToBitPosition(pin);
  bit_mask = *(port_base + 0x10);
  if (mode & 2) {
    bit_mask |= 0x08;
  } else {
    bit_mask &= 0xF7;
     a42:	87 7f       	andi	r24, 0xF7	; 247
     a44:	fa cf       	rjmp	.-12     	; 0xa3a <pinMode+0x3e>

00000a46 <enterSleep()>:
_Z10enterSleepv():
/home/wlf-solar/Documents/bsides-leeds-2026-badge/firmware/firmware.ino:172
  }
}

void disableRtc()
{
  RTC.PITINTCTRL = ~(RTC_PI_bm);
     a46:	8e ef       	ldi	r24, 0xFE	; 254
     a48:	80 93 52 01 	sts	0x0152, r24	; 0x800152 <digital_pin_to_bit_mask+0x7f6166>
/home/wlf-solar/Documents/bsides-leeds-2026-badge/firmware/firmware.ino:173
  shouldProcessPtc = false;
     a4c:	10 92 ce 3e 	sts	0x3ECE, r1	; 0x803ece <shouldProcessPtc>
/home/wlf-solar/Documents/bsides-leeds-2026-badge/firmware/firmware.ino:219
}

void enterSleep()
{
  disableRtc();
  set_sleep_mode(SLEEP_MODE_PWR_DOWN);
     a50:	80 91 50 00 	lds	r24, 0x0050	; 0x800050 <digital_pin_to_bit_mask+0x7f6064>
     a54:	89 7f       	andi	r24, 0xF9	; 249
     a56:	84 60       	ori	r24, 0x04	; 4
     a58:	80 93 50 00 	sts	0x0050, r24	; 0x800050 <digital_pin_to_bit_mask+0x7f6064>
/home/wlf-solar/Documents/bsides-leeds-2026-badge/firmware/firmware.ino:221

  PORTA.PIN3CTRL = PORT_PULLUPEN_bm | PORT_ISC_LEVEL_gc;
     a5c:	8d e0       	ldi	r24, 0x0D	; 13
     a5e:	80 93 13 04 	sts	0x0413, r24	; 0x800413 <digital_pin_to_bit_mask+0x7f6427>
/home/wlf-solar/Documents/bsides-leeds-2026-badge/firmware/firmware.ino:222
  digitalWrite(LED_POWER_PIN, LOW);
     a62:	80 e0       	ldi	r24, 0x00	; 0
     a64:	ab df       	rcall	.-170    	; 0x9bc <digitalWrite.constprop.13>
/home/wlf-solar/Documents/bsides-leeds-2026-badge/firmware/firmware.ino:223
  ADC0.CTRLA &= ~ADC_ENABLE_bm;
     a66:	80 91 00 06 	lds	r24, 0x0600	; 0x800600 <digital_pin_to_bit_mask+0x7f6614>
     a6a:	8e 7f       	andi	r24, 0xFE	; 254
     a6c:	80 93 00 06 	sts	0x0600, r24	; 0x800600 <digital_pin_to_bit_mask+0x7f6614>
     a70:	c8 ec       	ldi	r28, 0xC8	; 200
     a72:	df e9       	ldi	r29, 0x9F	; 159
setTouchButtonPins():
/home/wlf-solar/Documents/bsides-leeds-2026-badge/firmware/firmware.ino:166
}

void setTouchButtonPins(uint8_t mode)
{
  for (uint8_t buttonIndex = 0; buttonIndex < NUM_TOUCH_BUTTONS; ++buttonIndex) {
    pinMode(TOUCH_BUTTON_PINS[buttonIndex], mode);
     a74:	61 e0       	ldi	r22, 0x01	; 1
     a76:	89 91       	ld	r24, Y+
     a78:	c1 df       	rcall	.-126    	; 0x9fc <pinMode>
/home/wlf-solar/Documents/bsides-leeds-2026-badge/firmware/firmware.ino:165
  setAllLeds(color.red, color.green, color.blue, show);
}

void setTouchButtonPins(uint8_t mode)
{
  for (uint8_t buttonIndex = 0; buttonIndex < NUM_TOUCH_BUTTONS; ++buttonIndex) {
     a7a:	8f e9       	ldi	r24, 0x9F	; 159
     a7c:	ce 3c       	cpi	r28, 0xCE	; 206
     a7e:	d8 07       	cpc	r29, r24
     a80:	c9 f7       	brne	.-14     	; 0xa74 <enterSleep()+0x2e>
_Z10enterSleepv():
/home/wlf-solar/Documents/bsides-leeds-2026-badge/firmware/firmware.ino:226
  PORTA.PIN3CTRL = PORT_PULLUPEN_bm | PORT_ISC_LEVEL_gc;
  digitalWrite(LED_POWER_PIN, LOW);
  ADC0.CTRLA &= ~ADC_ENABLE_bm;
  setTouchButtonPins(OUTPUT);

  sleep_enable();
     a82:	80 91 50 00 	lds	r24, 0x0050	; 0x800050 <digital_pin_to_bit_mask+0x7f6064>
     a86:	81 60       	ori	r24, 0x01	; 1
     a88:	80 93 50 00 	sts	0x0050, r24	; 0x800050 <digital_pin_to_bit_mask+0x7f6064>
/home/wlf-solar/Documents/bsides-leeds-2026-badge/firmware/firmware.ino:227
  sleep_cpu();
     a8c:	88 95       	sleep
/home/wlf-solar/Documents/bsides-leeds-2026-badge/firmware/firmware.ino:230

  // Wake is handled by rebooting through the watchdog, as in the original code.
  _PROTECTED_WRITE(WDT.CTRLA, WDT_PERIOD_8CLK_gc);
     a8e:	88 ed       	ldi	r24, 0xD8	; 216
     a90:	91 e0       	ldi	r25, 0x01	; 1
     a92:	84 bf       	out	0x34, r24	; 52
     a94:	90 93 00 01 	sts	0x0100, r25	; 0x800100 <digital_pin_to_bit_mask+0x7f6114>
     a98:	ff cf       	rjmp	.-2      	; 0xa98 <enterSleep()+0x52>

00000a9a <delay>:
delay():
/home/wlf-solar/.arduino15/packages/megaTinyCore/hardware/megaavr/2.6.11/cores/megatinycore/wiring.c:246
  }
#else
  void delay(uint32_t ms) {
    if (__builtin_constant_p(ms) && ms < 16) {
      _delay_ms(ms);
    } else if (ms < 16) {
     a9a:	60 31       	cpi	r22, 0x10	; 16
     a9c:	71 05       	cpc	r23, r1
     a9e:	81 05       	cpc	r24, r1
     aa0:	91 05       	cpc	r25, r1
     aa2:	38 f0       	brcs	.+14     	; 0xab2 <delay+0x18>
     aa4:	93 cb       	rjmp	.-2266   	; 0x1cc <delay.part.0>
_delay_ms():
/home/wlf-solar/.arduino15/packages/DxCore/tools/avr-gcc/7.3.0-atmel3.6.1-azduino7b1/avr/include/util/delay.h:187
	#else
		//round up by default
		__ticks_dc = (uint32_t)(ceil(fabs(__tmp)));
	#endif

	__builtin_avr_delay_cycles(__ticks_dc);
     aa6:	e7 e8       	ldi	r30, 0x87	; 135
     aa8:	f3 e1       	ldi	r31, 0x13	; 19
     aaa:	31 97       	sbiw	r30, 0x01	; 1
     aac:	f1 f7       	brne	.-4      	; 0xaaa <delay+0x10>
     aae:	00 c0       	rjmp	.+0      	; 0xab0 <delay+0x16>
     ab0:	00 00       	nop
delay():
/home/wlf-solar/.arduino15/packages/megaTinyCore/hardware/megaavr/2.6.11/cores/megatinycore/wiring.c:247
      while(ms--) {
     ab2:	61 50       	subi	r22, 0x01	; 1
     ab4:	71 09       	sbc	r23, r1
     ab6:	81 09       	sbc	r24, r1
     ab8:	91 09       	sbc	r25, r1
     aba:	a8 f7       	brcc	.-22     	; 0xaa6 <delay+0xc>
     abc:	08 95       	ret

00000abe <bootStutterFill(unsigned char, unsigned char, unsigned char, unsigned char, unsigned char) [clone .constprop.1]>:
_Z15bootStutterFillhhhhh.constprop.1():
/home/wlf-solar/Documents/bsides-leeds-2026-badge/firmware/firmware.ino:974
  }
  setAllLeds(COLOR_OFF, true);
}

// Stage 2: stutter fill — fills along infinity path but stutters and rewinds
void bootStutterFill(uint8_t start, uint8_t count, uint8_t r, uint8_t g, uint8_t b)
     abe:	df 92       	push	r13
     ac0:	ef 92       	push	r14
     ac2:	ff 92       	push	r15
     ac4:	0f 93       	push	r16
     ac6:	1f 93       	push	r17
     ac8:	cf 93       	push	r28
     aca:	df 93       	push	r29
     acc:	d6 2f       	mov	r29, r22
     ace:	d4 2e       	mov	r13, r20
/home/wlf-solar/Documents/bsides-leeds-2026-badge/firmware/firmware.ino:976
{
  int8_t i = 0;
     ad0:	c0 e0       	ldi	r28, 0x00	; 0
/home/wlf-solar/Documents/bsides-leeds-2026-badge/firmware/firmware.ino:978
  while (i < (int8_t)count) {
    uint8_t ledIndex = pgm_read_byte(&INFINITI_LEDS[start + i]);
     ad2:	e8 2e       	mov	r14, r24
     ad4:	f1 2c       	mov	r15, r1
     ad6:	87 01       	movw	r16, r14
     ad8:	0c 0f       	add	r16, r28
     ada:	11 1d       	adc	r17, r1
     adc:	c7 fd       	sbrc	r28, 7
     ade:	1a 95       	dec	r17
     ae0:	0f 54       	subi	r16, 0x4F	; 79
     ae2:	1f 4f       	sbci	r17, 0xFF	; 255
     ae4:	f8 01       	movw	r30, r16
     ae6:	84 91       	lpm	r24, Z
/home/wlf-solar/Documents/bsides-leeds-2026-badge/firmware/firmware.ino:979
    ledStrip.setPixelColor(ledIndex, r, g, b);
     ae8:	2e e1       	ldi	r18, 0x1E	; 30
     aea:	4d 2d       	mov	r20, r13
     aec:	6d 2f       	mov	r22, r29
     aee:	90 e0       	ldi	r25, 0x00	; 0
     af0:	27 db       	rcall	.-2482   	; 0x140 <tinyNeoPixel::setPixelColor(unsigned int, unsigned char, unsigned char, unsigned char) [clone .constprop.18]>
/home/wlf-solar/Documents/bsides-leeds-2026-badge/firmware/firmware.ino:980
    ledStrip.show();
     af2:	e2 db       	rcall	.-2108   	; 0x2b8 <tinyNeoPixel::show() [clone .constprop.20]>
delay():
     af4:	6d e2       	ldi	r22, 0x2D	; 45
     af6:	70 e0       	ldi	r23, 0x00	; 0
     af8:	80 e0       	ldi	r24, 0x00	; 0
     afa:	90 e0       	ldi	r25, 0x00	; 0
     afc:	67 db       	rcall	.-2354   	; 0x1cc <delay.part.0>
_Z15bootStutterFillhhhhh.constprop.1():
/home/wlf-solar/Documents/bsides-leeds-2026-badge/firmware/firmware.ino:984
    delay(45);

    // ~20% chance of stutter: freeze then optionally rewind
    if ((nextRandomByte() & 0x07) < 2) {
     afe:	30 df       	rcall	.-416    	; 0x960 <nextRandomByte()>
     b00:	87 70       	andi	r24, 0x07	; 7
     b02:	82 30       	cpi	r24, 0x02	; 2
     b04:	08 f0       	brcs	.+2      	; 0xb08 <bootStutterFill(unsigned char, unsigned char, unsigned char, unsigned char, unsigned char) [clone .constprop.1]+0x4a>
     b06:	39 c0       	rjmp	.+114    	; 0xb7a <bootStutterFill(unsigned char, unsigned char, unsigned char, unsigned char, unsigned char) [clone .constprop.1]+0xbc>
/home/wlf-solar/Documents/bsides-leeds-2026-badge/firmware/firmware.ino:986
      // freeze
      delay(nextRandomByte() & 0x7F); // 0-127ms stall
     b08:	2b df       	rcall	.-426    	; 0x960 <nextRandomByte()>
     b0a:	8f 77       	andi	r24, 0x7F	; 127
     b0c:	68 2f       	mov	r22, r24
     b0e:	70 e0       	ldi	r23, 0x00	; 0
     b10:	90 e0       	ldi	r25, 0x00	; 0
     b12:	80 e0       	ldi	r24, 0x00	; 0
     b14:	c2 df       	rcall	.-124    	; 0xa9a <delay>
/home/wlf-solar/Documents/bsides-leeds-2026-badge/firmware/firmware.ino:988
      // ~50% chance to rewind one step
      if ((nextRandomByte() & 0x01) && i > 0) {
     b16:	24 df       	rcall	.-440    	; 0x960 <nextRandomByte()>
     b18:	80 ff       	sbrs	r24, 0
     b1a:	2f c0       	rjmp	.+94     	; 0xb7a <bootStutterFill(unsigned char, unsigned char, unsigned char, unsigned char, unsigned char) [clone .constprop.1]+0xbc>
     b1c:	cc 23       	and	r28, r28
     b1e:	69 f1       	breq	.+90     	; 0xb7a <bootStutterFill(unsigned char, unsigned char, unsigned char, unsigned char, unsigned char) [clone .constprop.1]+0xbc>
/home/wlf-solar/Documents/bsides-leeds-2026-badge/firmware/firmware.ino:989
        ledStrip.setPixelColor(pgm_read_byte(&INFINITI_LEDS[start + i]), 0, 0, 0);
     b20:	f8 01       	movw	r30, r16
     b22:	84 91       	lpm	r24, Z
     b24:	20 e0       	ldi	r18, 0x00	; 0
     b26:	40 e0       	ldi	r20, 0x00	; 0
     b28:	60 e0       	ldi	r22, 0x00	; 0
     b2a:	90 e0       	ldi	r25, 0x00	; 0
     b2c:	09 db       	rcall	.-2542   	; 0x140 <tinyNeoPixel::setPixelColor(unsigned int, unsigned char, unsigned char, unsigned char) [clone .constprop.18]>
/home/wlf-solar/Documents/bsides-leeds-2026-badge/firmware/firmware.ino:990
        ledStrip.show();
     b2e:	c4 db       	rcall	.-2168   	; 0x2b8 <tinyNeoPixel::show() [clone .constprop.20]>
delay():
     b30:	68 e2       	ldi	r22, 0x28	; 40
     b32:	70 e0       	ldi	r23, 0x00	; 0
     b34:	80 e0       	ldi	r24, 0x00	; 0
     b36:	90 e0       	ldi	r25, 0x00	; 0
     b38:	49 db       	rcall	.-2414   	; 0x1cc <delay.part.0>
_Z15bootStutterFillhhhhh.constprop.1():
/home/wlf-solar/Documents/bsides-leeds-2026-badge/firmware/firmware.ino:992
        delay(40);
        --i;
     b3a:	c1 50       	subi	r28, 0x01	; 1
/home/wlf-solar/Documents/bsides-leeds-2026-badge/firmware/firmware.ino:994
        // flicker the rewound LED
        ledStrip.setPixelColor(pgm_read_byte(&INFINITI_LEDS[start + i]), r, g, b);
     b3c:	87 01       	movw	r16, r14
     b3e:	0c 0f       	add	r16, r28
     b40:	11 1d       	adc	r17, r1
     b42:	0f 54       	subi	r16, 0x4F	; 79
     b44:	1f 4f       	sbci	r17, 0xFF	; 255
     b46:	f8 01       	movw	r30, r16
     b48:	84 91       	lpm	r24, Z
     b4a:	2e e1       	ldi	r18, 0x1E	; 30
     b4c:	4d 2d       	mov	r20, r13
     b4e:	6d 2f       	mov	r22, r29
     b50:	90 e0       	ldi	r25, 0x00	; 0
     b52:	f6 da       	rcall	.-2580   	; 0x140 <tinyNeoPixel::setPixelColor(unsigned int, unsigned char, unsigned char, unsigned char) [clone .constprop.18]>
/home/wlf-solar/Documents/bsides-leeds-2026-badge/firmware/firmware.ino:995
        ledStrip.show();
     b54:	b1 db       	rcall	.-2206   	; 0x2b8 <tinyNeoPixel::show() [clone .constprop.20]>
delay():
     b56:	6e e1       	ldi	r22, 0x1E	; 30
     b58:	70 e0       	ldi	r23, 0x00	; 0
     b5a:	80 e0       	ldi	r24, 0x00	; 0
     b5c:	90 e0       	ldi	r25, 0x00	; 0
     b5e:	36 db       	rcall	.-2452   	; 0x1cc <delay.part.0>
_Z15bootStutterFillhhhhh.constprop.1():
/home/wlf-solar/Documents/bsides-leeds-2026-badge/firmware/firmware.ino:997
        delay(30);
        ledStrip.setPixelColor(pgm_read_byte(&INFINITI_LEDS[start + i]), 0, 0, 0);
     b60:	f8 01       	movw	r30, r16
     b62:	84 91       	lpm	r24, Z
     b64:	20 e0       	ldi	r18, 0x00	; 0
     b66:	40 e0       	ldi	r20, 0x00	; 0
     b68:	60 e0       	ldi	r22, 0x00	; 0
     b6a:	90 e0       	ldi	r25, 0x00	; 0
     b6c:	e9 da       	rcall	.-2606   	; 0x140 <tinyNeoPixel::setPixelColor(unsigned int, unsigned char, unsigned char, unsigned char) [clone .constprop.18]>
/home/wlf-solar/Documents/bsides-leeds-2026-badge/firmware/firmware.ino:998
        ledStrip.show();
     b6e:	a4 db       	rcall	.-2232   	; 0x2b8 <tinyNeoPixel::show() [clone .constprop.20]>
delay():
     b70:	62 e3       	ldi	r22, 0x32	; 50
     b72:	70 e0       	ldi	r23, 0x00	; 0
     b74:	80 e0       	ldi	r24, 0x00	; 0
     b76:	90 e0       	ldi	r25, 0x00	; 0
     b78:	29 db       	rcall	.-2478   	; 0x1cc <delay.part.0>
_Z15bootStutterFillhhhhh.constprop.1():
/home/wlf-solar/Documents/bsides-leeds-2026-badge/firmware/firmware.ino:1002
        delay(50);
      }
    }
    ++i;
     b7a:	cf 5f       	subi	r28, 0xFF	; 255
/home/wlf-solar/Documents/bsides-leeds-2026-badge/firmware/firmware.ino:977

// Stage 2: stutter fill — fills along infinity path but stutters and rewinds
void bootStutterFill(uint8_t start, uint8_t count, uint8_t r, uint8_t g, uint8_t b)
{
  int8_t i = 0;
  while (i < (int8_t)count) {
     b7c:	c9 30       	cpi	r28, 0x09	; 9
     b7e:	09 f0       	breq	.+2      	; 0xb82 <bootStutterFill(unsigned char, unsigned char, unsigned char, unsigned char, unsigned char) [clone .constprop.1]+0xc4>
     b80:	aa cf       	rjmp	.-172    	; 0xad6 <bootStutterFill(unsigned char, unsigned char, unsigned char, unsigned char, unsigned char) [clone .constprop.1]+0x18>
/home/wlf-solar/Documents/bsides-leeds-2026-badge/firmware/firmware.ino:1004
        delay(50);
      }
    }
    ++i;
  }
}
     b82:	df 91       	pop	r29
     b84:	cf 91       	pop	r28
     b86:	1f 91       	pop	r17
     b88:	0f 91       	pop	r16
     b8a:	ff 90       	pop	r15
     b8c:	ef 90       	pop	r14
     b8e:	df 90       	pop	r13
     b90:	08 95       	ret

00000b92 <bootFlickerDrain(unsigned char, unsigned char, unsigned char, unsigned char, unsigned char) [clone .constprop.0]>:
_Z16bootFlickerDrainhhhhh.constprop.0():
/home/wlf-solar/Documents/bsides-leeds-2026-badge/firmware/firmware.ino:1007

// Stage 3: flicker drain — drains but cleared LEDs randomly ghost back
void bootFlickerDrain(uint8_t start, uint8_t count, uint8_t r, uint8_t g, uint8_t b)
     b92:	2f 92       	push	r2
     b94:	3f 92       	push	r3
     b96:	4f 92       	push	r4
     b98:	5f 92       	push	r5
     b9a:	6f 92       	push	r6
     b9c:	7f 92       	push	r7
     b9e:	8f 92       	push	r8
     ba0:	9f 92       	push	r9
     ba2:	af 92       	push	r10
     ba4:	bf 92       	push	r11
     ba6:	cf 92       	push	r12
     ba8:	df 92       	push	r13
     baa:	ef 92       	push	r14
     bac:	ff 92       	push	r15
     bae:	0f 93       	push	r16
     bb0:	1f 93       	push	r17
     bb2:	cf 93       	push	r28
     bb4:	df 93       	push	r29
     bb6:	cd b7       	in	r28, 0x3d	; 61
     bb8:	de b7       	in	r29, 0x3e	; 62
     bba:	29 97       	sbiw	r28, 0x09	; 9
     bbc:	cd bf       	out	0x3d, r28	; 61
     bbe:	de bf       	out	0x3e, r29	; 62
     bc0:	56 2e       	mov	r5, r22
     bc2:	44 2e       	mov	r4, r20
     bc4:	9e 01       	movw	r18, r28
     bc6:	2f 5f       	subi	r18, 0xFF	; 255
     bc8:	3f 4f       	sbci	r19, 0xFF	; 255
     bca:	79 01       	movw	r14, r18
     bcc:	27 5f       	subi	r18, 0xF7	; 247
     bce:	3f 4f       	sbci	r19, 0xFF	; 255
     bd0:	f7 01       	movw	r30, r14
     bd2:	47 01       	movw	r8, r14
/home/wlf-solar/Documents/bsides-leeds-2026-badge/firmware/firmware.ino:1010
{
  bool cleared[9];
  for (uint8_t i = 0; i < count; ++i) cleared[i] = false;
     bd4:	11 92       	st	Z+, r1
     bd6:	e2 17       	cp	r30, r18
     bd8:	f3 07       	cpc	r31, r19
     bda:	e1 f7       	brne	.-8      	; 0xbd4 <bootFlickerDrain(unsigned char, unsigned char, unsigned char, unsigned char, unsigned char) [clone .constprop.0]+0x42>
/home/wlf-solar/Documents/bsides-leeds-2026-badge/firmware/firmware.ino:1023
    // ghost: a previously cleared LED randomly re-ignites briefly
    if ((nextRandomByte() & 0x03) == 0) {
      uint8_t ghost = nextRandomByte() % count;
      if (cleared[ghost]) {
        uint8_t gl = pgm_read_byte(&INFINITI_LEDS[start + ghost]);
        ledStrip.setPixelColor(gl, r >> 2, g >> 2, b >> 2);
     bdc:	34 2c       	mov	r3, r4
     bde:	36 94       	lsr	r3
     be0:	36 94       	lsr	r3
     be2:	25 2c       	mov	r2, r5
     be4:	26 94       	lsr	r2
     be6:	26 94       	lsr	r2
     be8:	98 e0       	ldi	r25, 0x08	; 8
     bea:	c9 2e       	mov	r12, r25
     bec:	d1 2c       	mov	r13, r1
/home/wlf-solar/Documents/bsides-leeds-2026-badge/firmware/firmware.ino:1013
{
  bool cleared[9];
  for (uint8_t i = 0; i < count; ++i) cleared[i] = false;

  for (int8_t i = count - 1; i >= 0; --i) {
    ledStrip.setPixelColor(pgm_read_byte(&INFINITI_LEDS[start + i]), r, g, b);
     bee:	a8 2e       	mov	r10, r24
     bf0:	b1 2c       	mov	r11, r1
     bf2:	c5 01       	movw	r24, r10
     bf4:	8f 54       	subi	r24, 0x4F	; 79
     bf6:	9f 4f       	sbci	r25, 0xFF	; 255
     bf8:	3c 01       	movw	r6, r24
     bfa:	f3 01       	movw	r30, r6
     bfc:	ec 0d       	add	r30, r12
     bfe:	fd 1d       	adc	r31, r13
     c00:	84 91       	lpm	r24, Z
     c02:	20 e0       	ldi	r18, 0x00	; 0
     c04:	44 2d       	mov	r20, r4
     c06:	65 2d       	mov	r22, r5
     c08:	90 e0       	ldi	r25, 0x00	; 0
     c0a:	9a da       	rcall	.-2764   	; 0x140 <tinyNeoPixel::setPixelColor(unsigned int, unsigned char, unsigned char, unsigned char) [clone .constprop.18]>
/home/wlf-solar/Documents/bsides-leeds-2026-badge/firmware/firmware.ino:1014
    cleared[i] = true;
     c0c:	21 e0       	ldi	r18, 0x01	; 1
     c0e:	f7 01       	movw	r30, r14
     c10:	20 87       	std	Z+8, r18	; 0x08
/home/wlf-solar/Documents/bsides-leeds-2026-badge/firmware/firmware.ino:1015
    ledStrip.show();
     c12:	52 db       	rcall	.-2396   	; 0x2b8 <tinyNeoPixel::show() [clone .constprop.20]>
delay():
     c14:	6c e1       	ldi	r22, 0x1C	; 28
     c16:	70 e0       	ldi	r23, 0x00	; 0
     c18:	80 e0       	ldi	r24, 0x00	; 0
     c1a:	90 e0       	ldi	r25, 0x00	; 0
     c1c:	d7 da       	rcall	.-2642   	; 0x1cc <delay.part.0>
_Z16bootFlickerDrainhhhhh.constprop.0():
/home/wlf-solar/Documents/bsides-leeds-2026-badge/firmware/firmware.ino:1019
    delay(28);

    // ghost: a previously cleared LED randomly re-ignites briefly
    if ((nextRandomByte() & 0x03) == 0) {
     c1e:	a0 de       	rcall	.-704    	; 0x960 <nextRandomByte()>
     c20:	83 70       	andi	r24, 0x03	; 3
     c22:	19 f5       	brne	.+70     	; 0xc6a <bootFlickerDrain(unsigned char, unsigned char, unsigned char, unsigned char, unsigned char) [clone .constprop.0]+0xd8>
/home/wlf-solar/Documents/bsides-leeds-2026-badge/firmware/firmware.ino:1020
      uint8_t ghost = nextRandomByte() % count;
     c24:	9d de       	rcall	.-710    	; 0x960 <nextRandomByte()>
     c26:	69 e0       	ldi	r22, 0x09	; 9
     c28:	2e d9       	rcall	.-3492   	; 0xfffffe86 <__eeprom_end+0xff7efe86>
/home/wlf-solar/Documents/bsides-leeds-2026-badge/firmware/firmware.ino:1021
      if (cleared[ghost]) {
     c2a:	e9 2f       	mov	r30, r25
     c2c:	f0 e0       	ldi	r31, 0x00	; 0
     c2e:	d4 01       	movw	r26, r8
     c30:	ae 0f       	add	r26, r30
     c32:	bf 1f       	adc	r27, r31
     c34:	8c 91       	ld	r24, X
     c36:	88 23       	and	r24, r24
     c38:	c1 f0       	breq	.+48     	; 0xc6a <bootFlickerDrain(unsigned char, unsigned char, unsigned char, unsigned char, unsigned char) [clone .constprop.0]+0xd8>
/home/wlf-solar/Documents/bsides-leeds-2026-badge/firmware/firmware.ino:1022
        uint8_t gl = pgm_read_byte(&INFINITI_LEDS[start + ghost]);
     c3a:	ea 0d       	add	r30, r10
     c3c:	fb 1d       	adc	r31, r11
     c3e:	ef 54       	subi	r30, 0x4F	; 79
     c40:	ff 4f       	sbci	r31, 0xFF	; 255
     c42:	e4 91       	lpm	r30, Z
/home/wlf-solar/Documents/bsides-leeds-2026-badge/firmware/firmware.ino:1023
        ledStrip.setPixelColor(gl, r >> 2, g >> 2, b >> 2);
     c44:	0e 2f       	mov	r16, r30
     c46:	10 e0       	ldi	r17, 0x00	; 0
     c48:	20 e0       	ldi	r18, 0x00	; 0
     c4a:	43 2d       	mov	r20, r3
     c4c:	62 2d       	mov	r22, r2
     c4e:	c8 01       	movw	r24, r16
     c50:	77 da       	rcall	.-2834   	; 0x140 <tinyNeoPixel::setPixelColor(unsigned int, unsigned char, unsigned char, unsigned char) [clone .constprop.18]>
/home/wlf-solar/Documents/bsides-leeds-2026-badge/firmware/firmware.ino:1024
        ledStrip.show();
     c52:	32 db       	rcall	.-2460   	; 0x2b8 <tinyNeoPixel::show() [clone .constprop.20]>
delay():
     c54:	6d e2       	ldi	r22, 0x2D	; 45
     c56:	70 e0       	ldi	r23, 0x00	; 0
     c58:	80 e0       	ldi	r24, 0x00	; 0
     c5a:	90 e0       	ldi	r25, 0x00	; 0
     c5c:	b7 da       	rcall	.-2706   	; 0x1cc <delay.part.0>
_Z16bootFlickerDrainhhhhh.constprop.0():
/home/wlf-solar/Documents/bsides-leeds-2026-badge/firmware/firmware.ino:1026
        delay(45);
        ledStrip.setPixelColor(gl, 0, 0, 0);
     c5e:	20 e0       	ldi	r18, 0x00	; 0
     c60:	40 e0       	ldi	r20, 0x00	; 0
     c62:	60 e0       	ldi	r22, 0x00	; 0
     c64:	c8 01       	movw	r24, r16
     c66:	6c da       	rcall	.-2856   	; 0x140 <tinyNeoPixel::setPixelColor(unsigned int, unsigned char, unsigned char, unsigned char) [clone .constprop.18]>
/home/wlf-solar/Documents/bsides-leeds-2026-badge/firmware/firmware.ino:1027
        ledStrip.show();
     c68:	27 db       	rcall	.-2482   	; 0x2b8 <tinyNeoPixel::show() [clone .constprop.20]>
     c6a:	31 e0       	ldi	r19, 0x01	; 1
     c6c:	c3 1a       	sub	r12, r19
     c6e:	d1 08       	sbc	r13, r1
     c70:	81 e0       	ldi	r24, 0x01	; 1
     c72:	e8 1a       	sub	r14, r24
     c74:	f1 08       	sbc	r15, r1
/home/wlf-solar/Documents/bsides-leeds-2026-badge/firmware/firmware.ino:1012
void bootFlickerDrain(uint8_t start, uint8_t count, uint8_t r, uint8_t g, uint8_t b)
{
  bool cleared[9];
  for (uint8_t i = 0; i < count; ++i) cleared[i] = false;

  for (int8_t i = count - 1; i >= 0; --i) {
     c76:	9f ef       	ldi	r25, 0xFF	; 255
     c78:	c9 16       	cp	r12, r25
     c7a:	d9 06       	cpc	r13, r25
     c7c:	09 f0       	breq	.+2      	; 0xc80 <bootFlickerDrain(unsigned char, unsigned char, unsigned char, unsigned char, unsigned char) [clone .constprop.0]+0xee>
     c7e:	bd cf       	rjmp	.-134    	; 0xbfa <bootFlickerDrain(unsigned char, unsigned char, unsigned char, unsigned char, unsigned char) [clone .constprop.0]+0x68>
/home/wlf-solar/Documents/bsides-leeds-2026-badge/firmware/firmware.ino:1031
        ledStrip.setPixelColor(gl, 0, 0, 0);
        ledStrip.show();
      }
    }
  }
}
     c80:	29 96       	adiw	r28, 0x09	; 9
     c82:	cd bf       	out	0x3d, r28	; 61
     c84:	de bf       	out	0x3e, r29	; 62
     c86:	df 91       	pop	r29
     c88:	cf 91       	pop	r28
     c8a:	1f 91       	pop	r17
     c8c:	0f 91       	pop	r16
     c8e:	ff 90       	pop	r15
     c90:	ef 90       	pop	r14
     c92:	df 90       	pop	r13
     c94:	cf 90       	pop	r12
     c96:	bf 90       	pop	r11
     c98:	af 90       	pop	r10
     c9a:	9f 90       	pop	r9
     c9c:	8f 90       	pop	r8
     c9e:	7f 90       	pop	r7
     ca0:	6f 90       	pop	r6
     ca2:	5f 90       	pop	r5
     ca4:	4f 90       	pop	r4
     ca6:	3f 90       	pop	r3
     ca8:	2f 90       	pop	r2
     caa:	08 95       	ret

00000cac <morseFlash(unsigned int)>:
_Z10morseFlashj():
/home/wlf-solar/Documents/bsides-leeds-2026-badge/firmware/firmware.ino:1104
static const uint16_t MORSE_SYM_GAP  = 150;
static const uint16_t MORSE_CHAR_GAP = 450;
static const uint16_t MORSE_END_GAP  = 1200;

void morseFlash(uint16_t onMs)
{
     cac:	cf 93       	push	r28
     cae:	df 93       	push	r29
     cb0:	ec 01       	movw	r28, r24
/home/wlf-solar/Documents/bsides-leeds-2026-badge/firmware/firmware.ino:1105
  setAllLeds(30, 30, 30, true);
     cb2:	21 e0       	ldi	r18, 0x01	; 1
     cb4:	4e e1       	ldi	r20, 0x1E	; 30
     cb6:	6e e1       	ldi	r22, 0x1E	; 30
     cb8:	8e e1       	ldi	r24, 0x1E	; 30
     cba:	4e dd       	rcall	.-1380   	; 0x758 <setAllLeds(unsigned char, unsigned char, unsigned char, bool)>
/home/wlf-solar/Documents/bsides-leeds-2026-badge/firmware/firmware.ino:1106
  delay(onMs);
     cbc:	be 01       	movw	r22, r28
     cbe:	90 e0       	ldi	r25, 0x00	; 0
     cc0:	80 e0       	ldi	r24, 0x00	; 0
     cc2:	eb de       	rcall	.-554    	; 0xa9a <delay>
/home/wlf-solar/Documents/bsides-leeds-2026-badge/firmware/firmware.ino:1107
  setAllLeds(COLOR_OFF, true);
     cc4:	60 91 d1 9f 	lds	r22, 0x9FD1	; 0x809fd1 <__bss_end+0x60e1>
     cc8:	70 91 d2 9f 	lds	r23, 0x9FD2	; 0x809fd2 <__bss_end+0x60e2>
     ccc:	80 91 d3 9f 	lds	r24, 0x9FD3	; 0x809fd3 <__bss_end+0x60e3>
     cd0:	41 e0       	ldi	r20, 0x01	; 1
     cd2:	67 dd       	rcall	.-1330   	; 0x7a2 <setAllLeds(RgbColor, bool)>
delay():
     cd4:	66 e9       	ldi	r22, 0x96	; 150
     cd6:	70 e0       	ldi	r23, 0x00	; 0
     cd8:	80 e0       	ldi	r24, 0x00	; 0
     cda:	90 e0       	ldi	r25, 0x00	; 0
_Z10morseFlashj():
/home/wlf-solar/Documents/bsides-leeds-2026-badge/firmware/firmware.ino:1109
  delay(MORSE_SYM_GAP);
}
     cdc:	df 91       	pop	r29
     cde:	cf 91       	pop	r28
delay():
     ce0:	75 ca       	rjmp	.-2838   	; 0x1cc <delay.part.0>

00000ce2 <flashNotification(RgbColor)>:
_Z17flashNotification8RgbColor():
/home/wlf-solar/Documents/bsides-leeds-2026-badge/firmware/firmware.ino:327

  ledStrip.show();
}

void flashNotification(RgbColor color)
{
     ce2:	6f 92       	push	r6
     ce4:	7f 92       	push	r7
     ce6:	8f 92       	push	r8
     ce8:	cf 92       	push	r12
     cea:	df 92       	push	r13
     cec:	ef 92       	push	r14
     cee:	3b 01       	movw	r6, r22
     cf0:	88 2e       	mov	r8, r24
/home/wlf-solar/Documents/bsides-leeds-2026-badge/firmware/firmware.ino:328
  setAllLeds(color, true);
     cf2:	41 e0       	ldi	r20, 0x01	; 1
     cf4:	56 dd       	rcall	.-1364   	; 0x7a2 <setAllLeds(RgbColor, bool)>
delay():
     cf6:	62 e3       	ldi	r22, 0x32	; 50
     cf8:	70 e0       	ldi	r23, 0x00	; 0
     cfa:	80 e0       	ldi	r24, 0x00	; 0
     cfc:	90 e0       	ldi	r25, 0x00	; 0
     cfe:	66 da       	rcall	.-2868   	; 0x1cc <delay.part.0>
_Z17flashNotification8RgbColor():
/home/wlf-solar/Documents/bsides-leeds-2026-badge/firmware/firmware.ino:330
  delay(50);
  setAllLeds(COLOR_OFF, true);
     d00:	c0 90 d1 9f 	lds	r12, 0x9FD1	; 0x809fd1 <__bss_end+0x60e1>
     d04:	d0 90 d2 9f 	lds	r13, 0x9FD2	; 0x809fd2 <__bss_end+0x60e2>
     d08:	e0 90 d3 9f 	lds	r14, 0x9FD3	; 0x809fd3 <__bss_end+0x60e3>
     d0c:	41 e0       	ldi	r20, 0x01	; 1
     d0e:	8e 2d       	mov	r24, r14
     d10:	b6 01       	movw	r22, r12
     d12:	47 dd       	rcall	.-1394   	; 0x7a2 <setAllLeds(RgbColor, bool)>
delay():
     d14:	62 e3       	ldi	r22, 0x32	; 50
     d16:	70 e0       	ldi	r23, 0x00	; 0
     d18:	80 e0       	ldi	r24, 0x00	; 0
     d1a:	90 e0       	ldi	r25, 0x00	; 0
     d1c:	57 da       	rcall	.-2898   	; 0x1cc <delay.part.0>
_Z17flashNotification8RgbColor():
/home/wlf-solar/Documents/bsides-leeds-2026-badge/firmware/firmware.ino:332
  delay(50);
  setAllLeds(color, true);
     d1e:	41 e0       	ldi	r20, 0x01	; 1
     d20:	88 2d       	mov	r24, r8
     d22:	b3 01       	movw	r22, r6
     d24:	3e dd       	rcall	.-1412   	; 0x7a2 <setAllLeds(RgbColor, bool)>
delay():
     d26:	62 e3       	ldi	r22, 0x32	; 50
     d28:	70 e0       	ldi	r23, 0x00	; 0
     d2a:	80 e0       	ldi	r24, 0x00	; 0
     d2c:	90 e0       	ldi	r25, 0x00	; 0
     d2e:	4e da       	rcall	.-2916   	; 0x1cc <delay.part.0>
_Z17flashNotification8RgbColor():
/home/wlf-solar/Documents/bsides-leeds-2026-badge/firmware/firmware.ino:334
  delay(50);
  setAllLeds(COLOR_OFF, true);
     d30:	41 e0       	ldi	r20, 0x01	; 1
     d32:	8e 2d       	mov	r24, r14
     d34:	b6 01       	movw	r22, r12
     d36:	35 dd       	rcall	.-1430   	; 0x7a2 <setAllLeds(RgbColor, bool)>
delay():
     d38:	62 e3       	ldi	r22, 0x32	; 50
     d3a:	70 e0       	ldi	r23, 0x00	; 0
     d3c:	80 e0       	ldi	r24, 0x00	; 0
     d3e:	90 e0       	ldi	r25, 0x00	; 0
_Z17flashNotification8RgbColor():
/home/wlf-solar/Documents/bsides-leeds-2026-badge/firmware/firmware.ino:336
  delay(50);
}
     d40:	ef 90       	pop	r14
     d42:	df 90       	pop	r13
     d44:	cf 90       	pop	r12
     d46:	8f 90       	pop	r8
     d48:	7f 90       	pop	r7
     d4a:	6f 90       	pop	r6
delay():
     d4c:	3f ca       	rjmp	.-2946   	; 0x1cc <delay.part.0>

00000d4e <showSuccess()>:
_Z11showSuccessv():
/home/wlf-solar/Documents/bsides-leeds-2026-badge/firmware/firmware.ino:344
{
  flashNotification(COLOR_RED);
}

void showSuccess()
{
     d4e:	cf 92       	push	r12
     d50:	df 92       	push	r13
     d52:	ef 92       	push	r14
     d54:	cf 93       	push	r28
/home/wlf-solar/Documents/bsides-leeds-2026-badge/firmware/firmware.ino:346
  
  EEPROM.update(0, state);
     d56:	80 91 d0 3e 	lds	r24, 0x3ED0	; 0x803ed0 <state>
update():
/home/wlf-solar/.arduino15/packages/megaTinyCore/hardware/megaavr/2.6.11/libraries/EEPROM/src/EEPROM.h:149
  EERef &operator >>= (uint8_t in)    {
    return *this = **this >> in;
  }

  EERef &update(uint8_t in)          {
    return  in != *this ? *this = in : *this;
     d5a:	90 91 00 14 	lds	r25, 0x1400	; 0x801400 <digital_pin_to_bit_mask+0x7f7414>
     d5e:	89 17       	cp	r24, r25
     d60:	79 f0       	breq	.+30     	; 0xd80 <showSuccess()+0x32>
operator=():
/home/wlf-solar/.arduino15/packages/megaTinyCore/hardware/megaavr/2.6.11/libraries/EEPROM/src/EEPROM.h:95
      "ldi %0, 0x03"      "\n\t" // command loaded: page erase-write.
      "st Z, %0"          "\n\t" // write the page erase-write command to nvmctrl.ctrla
      "out 0x3f, r0"      "\n"   // restore SREG
      :"+d"(in)           // take the value we are writing in any upper register as read/write,
      : "x"(adr)          // and the address (not the index) in X
      : "r30", "r31", "r18");      // clobber Z and r18. We needed an upper register for the temporary value to andi it. I wonder if this will fix the eeprom bugs too?
     d62:	a0 e0       	ldi	r26, 0x00	; 0
     d64:	b4 e1       	ldi	r27, 0x14	; 20
     d66:	e0 e0       	ldi	r30, 0x00	; 0
     d68:	f0 e1       	ldi	r31, 0x10	; 16
     d6a:	0f b6       	in	r0, 0x3f	; 63
     d6c:	22 81       	ldd	r18, Z+2	; 0x02
     d6e:	23 70       	andi	r18, 0x03	; 3
     d70:	e9 f7       	brne	.-6      	; 0xd6c <showSuccess()+0x1e>
     d72:	f8 94       	cli
     d74:	8c 93       	st	X, r24
     d76:	8d e9       	ldi	r24, 0x9D	; 157
     d78:	84 bf       	out	0x34, r24	; 52
     d7a:	83 e0       	ldi	r24, 0x03	; 3
     d7c:	80 83       	st	Z, r24
     d7e:	0f be       	out	0x3f, r0	; 63
_Z11showSuccessv():
/home/wlf-solar/Documents/bsides-leeds-2026-badge/firmware/firmware.ino:344
{
  flashNotification(COLOR_RED);
}

void showSuccess()
{
     d80:	c6 e0       	ldi	r28, 0x06	; 6
/home/wlf-solar/Documents/bsides-leeds-2026-badge/firmware/firmware.ino:348
  
  EEPROM.update(0, state);
  for (uint8_t flashIndex = 0; flashIndex < 6; ++flashIndex) {
    flashNotification(COLOR_GREEN);
     d82:	c0 90 b3 9f 	lds	r12, 0x9FB3	; 0x809fb3 <__bss_end+0x60c3>
     d86:	d0 90 b4 9f 	lds	r13, 0x9FB4	; 0x809fb4 <__bss_end+0x60c4>
     d8a:	e0 90 b5 9f 	lds	r14, 0x9FB5	; 0x809fb5 <__bss_end+0x60c5>
     d8e:	8e 2d       	mov	r24, r14
     d90:	b6 01       	movw	r22, r12
     d92:	a7 df       	rcall	.-178    	; 0xce2 <flashNotification(RgbColor)>
     d94:	c1 50       	subi	r28, 0x01	; 1
/home/wlf-solar/Documents/bsides-leeds-2026-badge/firmware/firmware.ino:347

void showSuccess()
{
  
  EEPROM.update(0, state);
  for (uint8_t flashIndex = 0; flashIndex < 6; ++flashIndex) {
     d96:	d9 f7       	brne	.-10     	; 0xd8e <showSuccess()+0x40>
/home/wlf-solar/Documents/bsides-leeds-2026-badge/firmware/firmware.ino:350
    flashNotification(COLOR_GREEN);
  }
}
     d98:	cf 91       	pop	r28
     d9a:	ef 90       	pop	r14
     d9c:	df 90       	pop	r13
     d9e:	cf 90       	pop	r12
     da0:	08 95       	ret

00000da2 <__vector_14>:
__vector_14():
/home/wlf-solar/.arduino15/packages/megaTinyCore/hardware/megaavr/2.6.11/cores/megatinycore/wiring_micros_ISR.h:839
  #else
    ISR(MILLIS_TIMER_VECTOR, ISR_NAKED) {
      // Common Interrupt header for TCB, TCA and TCD;
      // Clears the Timer Interrupt flag and pushes the CPU Registers
      // 7 words / 7 clocks
      __asm__ __volatile__(
     da2:	8f 93       	push	r24
     da4:	81 e0       	ldi	r24, 0x01	; 1
     da6:	80 93 8d 0a 	sts	0x0A8D, r24	; 0x800a8d <digital_pin_to_bit_mask+0x7f6aa1>
     daa:	8f b7       	in	r24, 0x3f	; 63
     dac:	8f 93       	push	r24
     dae:	ef 93       	push	r30
     db0:	ff 93       	push	r31
/home/wlf-solar/.arduino15/packages/megaTinyCore/hardware/megaavr/2.6.11/cores/megatinycore/wiring_micros_ISR.h:950
        [MIINC]  "M" ((0x0000 - MILLIS_INC) & 0xFF),
        [MINCD]  "M" ((0xFFFF - MILLIS_INC) & 0xFF)
      );
  */

      __asm__ __volatile__(
     db2:	e1 ed       	ldi	r30, 0xD1	; 209
     db4:	fe e3       	ldi	r31, 0x3E	; 62
     db6:	9f 93       	push	r25
     db8:	68 94       	set
     dba:	8f ef       	ldi	r24, 0xFF	; 255
     dbc:	0d c0       	rjmp	.+26     	; 0xdd8 <sub4>

00000dbe <ovf_end>:
     dbe:	e8 94       	clt
     dc0:	84 81       	ldd	r24, Z+4	; 0x04
     dc2:	95 81       	ldd	r25, Z+5	; 0x05
     dc4:	80 5d       	subi	r24, 0xD0	; 208
     dc6:	9c 4f       	sbci	r25, 0xFC	; 252
     dc8:	84 83       	std	Z+4, r24	; 0x04
     dca:	95 83       	std	Z+5, r25	; 0x05
     dcc:	88 5e       	subi	r24, 0xE8	; 232
     dce:	93 40       	sbci	r25, 0x03	; 3
     dd0:	80 f0       	brcs	.+32     	; 0xdf2 <sub_end>
     dd2:	84 83       	std	Z+4, r24	; 0x04
     dd4:	95 83       	std	Z+5, r25	; 0x05
     dd6:	8f ef       	ldi	r24, 0xFF	; 255

00000dd8 <sub4>:
     dd8:	90 81       	ld	r25, Z
     dda:	98 1b       	sub	r25, r24
     ddc:	91 93       	st	Z+, r25
     dde:	90 81       	ld	r25, Z
     de0:	9f 4f       	sbci	r25, 0xFF	; 255
     de2:	91 93       	st	Z+, r25
     de4:	90 81       	ld	r25, Z
     de6:	9f 4f       	sbci	r25, 0xFF	; 255
     de8:	91 93       	st	Z+, r25
     dea:	90 81       	ld	r25, Z
     dec:	9f 4f       	sbci	r25, 0xFF	; 255
     dee:	91 93       	st	Z+, r25
     df0:	36 f3       	brts	.-52     	; 0xdbe <ovf_end>

00000df2 <sub_end>:
     df2:	9f 91       	pop	r25
/home/wlf-solar/.arduino15/packages/megaTinyCore/hardware/megaavr/2.6.11/cores/megatinycore/wiring_micros_ISR.h:1012
        [MINCD]  "M" ((0xFFFF - MILLIS_INC) & 0xFF)
      );
    #endif /* (defined(MILLIS_USE_TIMERB0) || defined(MILLIS_USE_TIMERB1) || defined(MILLIS_USE_TIMERB2) || defined(MILLIS_USE_TIMERB3) || defined(MILLIS_USE_TIMERB4)) */
    // Common ISR Epilogue for TCA, TCB and TCD, popping register in reverse Order
    // 6 words, 14 clocks
    __asm__ __volatile__(
     df4:	ff 91       	pop	r31
     df6:	ef 91       	pop	r30
     df8:	8f 91       	pop	r24
     dfa:	8f bf       	out	0x3f, r24	; 63
     dfc:	8f 91       	pop	r24
     dfe:	18 95       	reti

00000e00 <__vector_17>:
__vector_17():
/home/wlf-solar/.arduino15/packages/megaTinyCore/hardware/megaavr/2.6.11/libraries/PTC/src/ptc.c:1110
  }
}


#if defined(__PTC_Tiny__)
ISR(ADC0_RESRDY_vect) {
     e00:	1f 92       	push	r1
     e02:	0f 92       	push	r0
     e04:	0f b6       	in	r0, 0x3f	; 63
     e06:	0f 92       	push	r0
     e08:	11 24       	eor	r1, r1
     e0a:	2f 93       	push	r18
     e0c:	3f 93       	push	r19
     e0e:	4f 93       	push	r20
     e10:	5f 93       	push	r21
     e12:	6f 93       	push	r22
     e14:	7f 93       	push	r23
     e16:	8f 93       	push	r24
     e18:	9f 93       	push	r25
     e1a:	af 93       	push	r26
     e1c:	bf 93       	push	r27
     e1e:	cf 93       	push	r28
     e20:	df 93       	push	r29
     e22:	ef 93       	push	r30
     e24:	ff 93       	push	r31
ptc_eoc():
/home/wlf-solar/.arduino15/packages/megaTinyCore/hardware/megaavr/2.6.11/libraries/PTC/src/ptc.c:1078
}

void ptc_eoc(void) {
  PTC_t *pPTC;
  volatile cap_sensor_t *pCurrentNode;  // volatile needed to pass type check
  _fastPtr_d(pPTC, &PTC);
     e26:	c0 e0       	ldi	r28, 0x00	; 0
     e28:	d6 e0       	ldi	r29, 0x06	; 6
/home/wlf-solar/.arduino15/packages/megaTinyCore/hardware/megaavr/2.6.11/libraries/PTC/src/ptc.c:1079
  _fastPtr_d(pCurrentNode, currConvNode);
     e2a:	e0 91 40 3e 	lds	r30, 0x3E40	; 0x803e40 <currConvNode>
     e2e:	f0 91 41 3e 	lds	r31, 0x3E41	; 0x803e41 <currConvNode+0x1>
/home/wlf-solar/.arduino15/packages/megaTinyCore/hardware/megaavr/2.6.11/libraries/PTC/src/ptc.c:1081

  if (NULL == pCurrentNode) {
     e32:	30 97       	sbiw	r30, 0x00	; 0
     e34:	f1 f0       	breq	.+60     	; 0xe72 <__vector_17+0x72>
/home/wlf-solar/.arduino15/packages/megaTinyCore/hardware/megaavr/2.6.11/libraries/PTC/src/ptc.c:1085
    return;
  }

  pPTC->CTRLA = 0x00;
     e36:	18 82       	st	Y, r1
/home/wlf-solar/.arduino15/packages/megaTinyCore/hardware/megaavr/2.6.11/libraries/PTC/src/ptc.c:1086
  uint8_t flags = pPTC->INTFLAGS; // save the flags before they get cleared by RES read
     e38:	3b 85       	ldd	r19, Y+11	; 0x0b
/home/wlf-solar/.arduino15/packages/megaTinyCore/hardware/megaavr/2.6.11/libraries/PTC/src/ptc.c:1087
  uint16_t rawVal =  pPTC->RES;   // clears ISR flags
     e3a:	88 89       	ldd	r24, Y+16	; 0x10
     e3c:	99 89       	ldd	r25, Y+17	; 0x11
/home/wlf-solar/.arduino15/packages/megaTinyCore/hardware/megaavr/2.6.11/libraries/PTC/src/ptc.c:1088
  uint8_t oversampling = pCurrentNode->hw_gain_ovs  & 0x0F;
     e3e:	22 85       	ldd	r18, Z+10	; 0x0a
     e40:	2f 70       	andi	r18, 0x0F	; 15
/home/wlf-solar/.arduino15/packages/megaTinyCore/hardware/megaavr/2.6.11/libraries/PTC/src/ptc.c:1089
  pCurrentNode->sensorData = rawVal >> oversampling;
     e42:	02 c0       	rjmp	.+4      	; 0xe48 <__vector_17+0x48>
     e44:	96 95       	lsr	r25
     e46:	87 95       	ror	r24
     e48:	2a 95       	dec	r18
     e4a:	e2 f7       	brpl	.-8      	; 0xe44 <__vector_17+0x44>
     e4c:	85 87       	std	Z+13, r24	; 0x0d
     e4e:	96 87       	std	Z+14, r25	; 0x0e
/home/wlf-solar/.arduino15/packages/megaTinyCore/hardware/megaavr/2.6.11/libraries/PTC/src/ptc.c:1092

  //currConvNode->sensorData = pPTC->RES_TRUE;
  pCurrentNode->state.data_ready = 1;
     e50:	84 85       	ldd	r24, Z+12	; 0x0c
     e52:	88 60       	ori	r24, 0x08	; 8
     e54:	84 87       	std	Z+12, r24	; 0x0c
/home/wlf-solar/.arduino15/packages/megaTinyCore/hardware/megaavr/2.6.11/libraries/PTC/src/ptc.c:1094

  if (pCurrentNode->state.low_power) {
     e56:	84 85       	ldd	r24, Z+12	; 0x0c
     e58:	82 ff       	sbrs	r24, 2
     e5a:	23 c0       	rjmp	.+70     	; 0xea2 <__vector_17+0xa2>
/home/wlf-solar/.arduino15/packages/megaTinyCore/hardware/megaavr/2.6.11/libraries/PTC/src/ptc.c:1096
    if (flags & ADC_WCMP_bm) {
      pCurrentNode->state.win_comp = 1;
     e5c:	84 85       	ldd	r24, Z+12	; 0x0c
/home/wlf-solar/.arduino15/packages/megaTinyCore/hardware/megaavr/2.6.11/libraries/PTC/src/ptc.c:1095

  //currConvNode->sensorData = pPTC->RES_TRUE;
  pCurrentNode->state.data_ready = 1;

  if (pCurrentNode->state.low_power) {
    if (flags & ADC_WCMP_bm) {
     e5e:	31 ff       	sbrs	r19, 1
     e60:	1b c0       	rjmp	.+54     	; 0xe98 <__vector_17+0x98>
/home/wlf-solar/.arduino15/packages/megaTinyCore/hardware/megaavr/2.6.11/libraries/PTC/src/ptc.c:1096
      pCurrentNode->state.win_comp = 1;
     e62:	82 60       	ori	r24, 0x02	; 2
     e64:	84 87       	std	Z+12, r24	; 0x0c
/home/wlf-solar/.arduino15/packages/megaTinyCore/hardware/megaavr/2.6.11/libraries/PTC/src/ptc.c:1097
      ptc_lib_state = PTC_LIB_CONV_WCMP;
     e66:	80 e1       	ldi	r24, 0x10	; 16
     e68:	90 e0       	ldi	r25, 0x00	; 0
/home/wlf-solar/.arduino15/packages/megaTinyCore/hardware/megaavr/2.6.11/libraries/PTC/src/ptc.c:1100
    } else {
      pCurrentNode->state.win_comp = 0;
      ptc_lib_state = PTC_LIB_CONV_LP;
     e6a:	80 93 3e 3e 	sts	0x3E3E, r24	; 0x803e3e <ptc_lib_state>
     e6e:	90 93 3f 3e 	sts	0x3E3F, r25	; 0x803e3f <ptc_lib_state+0x1>
__vector_17():
/home/wlf-solar/.arduino15/packages/megaTinyCore/hardware/megaavr/2.6.11/libraries/PTC/src/ptc.c:1112


#if defined(__PTC_Tiny__)
ISR(ADC0_RESRDY_vect) {
  ptc_eoc();
}
     e72:	ff 91       	pop	r31
     e74:	ef 91       	pop	r30
     e76:	df 91       	pop	r29
     e78:	cf 91       	pop	r28
     e7a:	bf 91       	pop	r27
     e7c:	af 91       	pop	r26
     e7e:	9f 91       	pop	r25
     e80:	8f 91       	pop	r24
     e82:	7f 91       	pop	r23
     e84:	6f 91       	pop	r22
     e86:	5f 91       	pop	r21
     e88:	4f 91       	pop	r20
     e8a:	3f 91       	pop	r19
     e8c:	2f 91       	pop	r18
     e8e:	0f 90       	pop	r0
     e90:	0f be       	out	0x3f, r0	; 63
     e92:	0f 90       	pop	r0
     e94:	1f 90       	pop	r1
     e96:	18 95       	reti
ptc_eoc():
/home/wlf-solar/.arduino15/packages/megaTinyCore/hardware/megaavr/2.6.11/libraries/PTC/src/ptc.c:1099
  if (pCurrentNode->state.low_power) {
    if (flags & ADC_WCMP_bm) {
      pCurrentNode->state.win_comp = 1;
      ptc_lib_state = PTC_LIB_CONV_WCMP;
    } else {
      pCurrentNode->state.win_comp = 0;
     e98:	8d 7f       	andi	r24, 0xFD	; 253
     e9a:	84 87       	std	Z+12, r24	; 0x0c
/home/wlf-solar/.arduino15/packages/megaTinyCore/hardware/megaavr/2.6.11/libraries/PTC/src/ptc.c:1100
      ptc_lib_state = PTC_LIB_CONV_LP;
     e9c:	88 e0       	ldi	r24, 0x08	; 8
     e9e:	90 e0       	ldi	r25, 0x00	; 0
     ea0:	e4 cf       	rjmp	.-56     	; 0xe6a <__vector_17+0x6a>
/home/wlf-solar/.arduino15/packages/megaTinyCore/hardware/megaavr/2.6.11/libraries/PTC/src/ptc.c:1104
    }

  } else {
    ptc_start_conversion(pCurrentNode->nextNode);
     ea2:	80 81       	ld	r24, Z
     ea4:	91 81       	ldd	r25, Z+1	; 0x01
     ea6:	8f da       	rcall	.-2786   	; 0x3c6 <ptc_start_conversion>
     ea8:	e4 cf       	rjmp	.-56     	; 0xe72 <__vector_17+0x72>

00000eaa <__vector_7>:
__vector_7():
/home/wlf-solar/Documents/bsides-leeds-2026-badge/firmware/firmware.ino:245
    while (true) { }
  }
}

ISR(RTC_PIT_vect)
{
     eaa:	1f 92       	push	r1
     eac:	0f 92       	push	r0
     eae:	0f b6       	in	r0, 0x3f	; 63
     eb0:	0f 92       	push	r0
     eb2:	11 24       	eor	r1, r1
     eb4:	cf 92       	push	r12
     eb6:	df 92       	push	r13
     eb8:	ef 92       	push	r14
     eba:	ff 92       	push	r15
     ebc:	2f 93       	push	r18
     ebe:	3f 93       	push	r19
     ec0:	4f 93       	push	r20
     ec2:	5f 93       	push	r21
     ec4:	6f 93       	push	r22
     ec6:	7f 93       	push	r23
     ec8:	8f 93       	push	r24
     eca:	9f 93       	push	r25
     ecc:	af 93       	push	r26
     ece:	bf 93       	push	r27
     ed0:	cf 93       	push	r28
     ed2:	df 93       	push	r29
     ed4:	ef 93       	push	r30
     ed6:	ff 93       	push	r31
/home/wlf-solar/Documents/bsides-leeds-2026-badge/firmware/firmware.ino:246
  RTC.PITINTFLAGS = RTC_PI_bm;
     ed8:	81 e0       	ldi	r24, 0x01	; 1
     eda:	80 93 53 01 	sts	0x0153, r24	; 0x800153 <digital_pin_to_bit_mask+0x7f6167>
/home/wlf-solar/Documents/bsides-leeds-2026-badge/firmware/firmware.ino:248

  if (shouldProcessPtc) {
     ede:	80 91 ce 3e 	lds	r24, 0x3ECE	; 0x803ece <shouldProcessPtc>
     ee2:	88 23       	and	r24, r24
     ee4:	09 f4       	brne	.+2      	; 0xee8 <__vector_7+0x3e>
     ee6:	92 c0       	rjmp	.+292    	; 0x100c <__vector_7+0x162>
millis():
/home/wlf-solar/.arduino15/packages/megaTinyCore/hardware/megaavr/2.6.11/cores/megatinycore/wiring.c:167
  unsigned long millis() {
    // return timer_overflow_count; // for debugging timekeeping issues where these variables are out of scope from the sketch
    unsigned long m;
    // disable interrupts while we read timer_millis or we might get an
    // inconsistent value (e.g. in the middle of a write to timer_millis)
    uint8_t oldSREG = SREG;
     ee8:	8f b7       	in	r24, 0x3f	; 63
/home/wlf-solar/.arduino15/packages/megaTinyCore/hardware/megaavr/2.6.11/cores/megatinycore/wiring.c:168
    cli();
     eea:	f8 94       	cli
/home/wlf-solar/.arduino15/packages/megaTinyCore/hardware/megaavr/2.6.11/cores/megatinycore/wiring.c:182
        if (!(rtccount & 0x8000)) m += 64000;
      }
      SREG = oldSREG;
      m += rtccount - (rtccount >> 5) + (rtccount >> 7);
    #else
      m = timingStruct.timer_millis;
     eec:	c0 90 d5 3e 	lds	r12, 0x3ED5	; 0x803ed5 <timingStruct+0x4>
     ef0:	d0 90 d6 3e 	lds	r13, 0x3ED6	; 0x803ed6 <timingStruct+0x5>
     ef4:	e0 90 d7 3e 	lds	r14, 0x3ED7	; 0x803ed7 <timingStruct+0x6>
     ef8:	f0 90 d8 3e 	lds	r15, 0x3ED8	; 0x803ed8 <timingStruct+0x7>
/home/wlf-solar/.arduino15/packages/megaTinyCore/hardware/megaavr/2.6.11/cores/megatinycore/wiring.c:183
      SREG = oldSREG;
     efc:	8f bf       	out	0x3f, r24	; 63
ptc_process():
/home/wlf-solar/.arduino15/packages/megaTinyCore/hardware/megaavr/2.6.11/libraries/PTC/src/ptc.c:492


// pass the time, e.g. return value of millis or TCB value to the function instead of having a
// millis in here. improves portability
void ptc_process(uint16_t currTime) {
  if ((PTC_LIB_CONV_WCMP | PTC_LIB_CONV_LP) & ptc_lib_state) {
     efe:	80 91 3e 3e 	lds	r24, 0x3E3E	; 0x803e3e <ptc_lib_state>
     f02:	90 91 3f 3e 	lds	r25, 0x3E3F	; 0x803e3f <ptc_lib_state+0x1>
     f06:	88 71       	andi	r24, 0x18	; 24
     f08:	99 27       	eor	r25, r25
     f0a:	89 2b       	or	r24, r25
     f0c:	09 f4       	brne	.+2      	; 0xf10 <__vector_7+0x66>
     f0e:	9f c0       	rjmp	.+318    	; 0x104e <__vector_7+0x1a4>
/home/wlf-solar/.arduino15/packages/megaTinyCore/hardware/megaavr/2.6.11/libraries/PTC/src/ptc.c:493
    if (NULL != lowPowerNode) {
     f10:	80 91 3a 3e 	lds	r24, 0x3E3A	; 0x803e3a <lowPowerNode>
     f14:	90 91 3b 3e 	lds	r25, 0x3E3B	; 0x803e3b <lowPowerNode+0x1>
     f18:	00 97       	sbiw	r24, 0x00	; 0
     f1a:	a1 f0       	breq	.+40     	; 0xf44 <__vector_7+0x9a>
/home/wlf-solar/.arduino15/packages/megaTinyCore/hardware/megaavr/2.6.11/libraries/PTC/src/ptc.c:494
      if (PTC_LIB_CONV_WCMP == ptc_lib_state) {
     f1c:	20 91 3e 3e 	lds	r18, 0x3E3E	; 0x803e3e <ptc_lib_state>
     f20:	30 91 3f 3e 	lds	r19, 0x3E3F	; 0x803e3f <ptc_lib_state+0x1>
/home/wlf-solar/.arduino15/packages/megaTinyCore/hardware/megaavr/2.6.11/libraries/PTC/src/ptc.c:499
        ptc_event_cb_wake(PTC_CB_EVENT_WAKE_TOUCH, lowPowerNode);
      } else {
        ptc_event_cb_wake(PTC_CB_EVENT_WAKE_NO_TOUCH, lowPowerNode);
      }
      ptc_process_measurement(lowPowerNode);
     f24:	aa da       	rcall	.-2732   	; 0x47a <ptc_process_measurement>
/home/wlf-solar/.arduino15/packages/megaTinyCore/hardware/megaavr/2.6.11/libraries/PTC/src/ptc.c:500
      if (NULL == lowPowerNode) { // Due to callbacks, low Power node may have been set to NULL by a disable
     f26:	80 91 3a 3e 	lds	r24, 0x3E3A	; 0x803e3a <lowPowerNode>
     f2a:	90 91 3b 3e 	lds	r25, 0x3E3B	; 0x803e3b <lowPowerNode+0x1>
     f2e:	89 2b       	or	r24, r25
     f30:	09 f0       	breq	.+2      	; 0xf34 <__vector_7+0x8a>
     f32:	83 c0       	rjmp	.+262    	; 0x103a <__vector_7+0x190>
/home/wlf-solar/.arduino15/packages/megaTinyCore/hardware/megaavr/2.6.11/libraries/PTC/src/ptc.c:501
        currConvType = NODE_TYPE_NOCONV_bm;
     f34:	10 92 3c 3e 	sts	0x3E3C, r1	; 0x803e3c <currConvType>
     f38:	10 92 3d 3e 	sts	0x3E3D, r1	; 0x803e3d <currConvType+0x1>
/home/wlf-solar/.arduino15/packages/megaTinyCore/hardware/megaavr/2.6.11/libraries/PTC/src/ptc.c:502
        ptc_lib_state = PTC_LIB_IDLE;
     f3c:	10 92 3e 3e 	sts	0x3E3E, r1	; 0x803e3e <ptc_lib_state>
     f40:	10 92 3f 3e 	sts	0x3E3F, r1	; 0x803e3f <ptc_lib_state+0x1>
/home/wlf-solar/.arduino15/packages/megaTinyCore/hardware/megaavr/2.6.11/libraries/PTC/src/ptc.c:517
    }
    ptc_event_cb_conversion((PTC_CB_EVENT_CONV_CMPL | currConvType), (cap_sensor_t *)currConvNode);
    currConvType = NODE_TYPE_NOCONV_bm;
  }

  if ((currTime - lastAcqTime) >= acqPeriod) {
     f44:	80 91 02 3e 	lds	r24, 0x3E02	; 0x803e02 <__data_end>
     f48:	90 91 03 3e 	lds	r25, 0x3E03	; 0x803e03 <__data_end+0x1>
     f4c:	c8 1a       	sub	r12, r24
     f4e:	d9 0a       	sbc	r13, r25
     f50:	24 e1       	ldi	r18, 0x14	; 20
     f52:	c2 16       	cp	r12, r18
     f54:	d1 04       	cpc	r13, r1
     f56:	08 f4       	brcc	.+2      	; 0xf5a <__vector_7+0xb0>
     f58:	59 c0       	rjmp	.+178    	; 0x100c <__vector_7+0x162>
/home/wlf-solar/.arduino15/packages/megaTinyCore/hardware/megaavr/2.6.11/libraries/PTC/src/ptc.c:518
    lastAcqTime += acqPeriod;
     f5a:	44 96       	adiw	r24, 0x14	; 20
     f5c:	80 93 02 3e 	sts	0x3E02, r24	; 0x803e02 <__data_end>
     f60:	90 93 03 3e 	sts	0x3E03, r25	; 0x803e03 <__data_end+0x1>
/home/wlf-solar/.arduino15/packages/megaTinyCore/hardware/megaavr/2.6.11/libraries/PTC/src/ptc.c:519
    if (PTC_LIB_IDLE == ptc_lib_state) {
     f64:	80 91 3e 3e 	lds	r24, 0x3E3E	; 0x803e3e <ptc_lib_state>
     f68:	90 91 3f 3e 	lds	r25, 0x3E3F	; 0x803e3f <ptc_lib_state+0x1>
     f6c:	89 2b       	or	r24, r25
     f6e:	09 f0       	breq	.+2      	; 0xf72 <__vector_7+0xc8>
     f70:	4d c0       	rjmp	.+154    	; 0x100c <__vector_7+0x162>
ptc_init_conversion():
/home/wlf-solar/.arduino15/packages/megaTinyCore/hardware/megaavr/2.6.11/libraries/PTC/src/ptc.c:852
}


void ptc_init_conversion(uint8_t nodeType) {
  PTC_t *pPTC;
  _fastPtr_d(pPTC, &PTC);
     f72:	e0 e0       	ldi	r30, 0x00	; 0
     f74:	f6 e0       	ldi	r31, 0x06	; 6
/home/wlf-solar/.arduino15/packages/megaTinyCore/hardware/megaavr/2.6.11/libraries/PTC/src/ptc.c:854

  if (ptc_lib_state & (PTC_LIB_CONV_PROG | PTC_LIB_CONV_LP | PTC_LIB_CONV_WCMP | PTC_LIB_SUSPENDED)) {
     f76:	80 91 3e 3e 	lds	r24, 0x3E3E	; 0x803e3e <ptc_lib_state>
     f7a:	90 91 3f 3e 	lds	r25, 0x3E3F	; 0x803e3f <ptc_lib_state+0x1>
     f7e:	89 79       	andi	r24, 0x99	; 153
     f80:	99 27       	eor	r25, r25
     f82:	89 2b       	or	r24, r25
     f84:	09 f0       	breq	.+2      	; 0xf88 <__vector_7+0xde>
     f86:	42 c0       	rjmp	.+132    	; 0x100c <__vector_7+0x162>
ptc_process():
/home/wlf-solar/.arduino15/packages/megaTinyCore/hardware/megaavr/2.6.11/libraries/PTC/src/ptc.c:522
  if ((currTime - lastAcqTime) >= acqPeriod) {
    lastAcqTime += acqPeriod;
    if (PTC_LIB_IDLE == ptc_lib_state) {
      uint8_t convType;
      if (nextConvType == 0) {
        convType = firstNode->type;
     f88:	80 91 42 3e 	lds	r24, 0x3E42	; 0x803e42 <firstNode>
     f8c:	90 91 43 3e 	lds	r25, 0x3E43	; 0x803e43 <firstNode+0x1>
     f90:	dc 01       	movw	r26, r24
     f92:	12 96       	adiw	r26, 0x02	; 2
     f94:	2d 91       	ld	r18, X+
     f96:	3c 91       	ld	r19, X
ptc_init_conversion():
/home/wlf-solar/.arduino15/packages/megaTinyCore/hardware/megaavr/2.6.11/libraries/PTC/src/ptc.c:859
  if (ptc_lib_state & (PTC_LIB_CONV_PROG | PTC_LIB_CONV_LP | PTC_LIB_CONV_WCMP | PTC_LIB_SUSPENDED)) {
    return;
  }

  #if defined (__PTC_Tiny__)
  pPTC->CTRLP = 0x00;
     f98:	10 8e       	std	Z+24, r1	; 0x18
/home/wlf-solar/.arduino15/packages/megaTinyCore/hardware/megaavr/2.6.11/libraries/PTC/src/ptc.c:861
  if (nodeType & NODE_MUTUAL_bm) {  /* NODE_MUTUAL */
    pPTC->CTRLP    = 0xC0 | 0x20;
     f9a:	40 ee       	ldi	r20, 0xE0	; 224
/home/wlf-solar/.arduino15/packages/megaTinyCore/hardware/megaavr/2.6.11/libraries/PTC/src/ptc.c:860
    return;
  }

  #if defined (__PTC_Tiny__)
  pPTC->CTRLP = 0x00;
  if (nodeType & NODE_MUTUAL_bm) {  /* NODE_MUTUAL */
     f9c:	20 fd       	sbrc	r18, 0
     f9e:	76 c0       	rjmp	.+236    	; 0x108c <__vector_7+0x1e2>
/home/wlf-solar/.arduino15/packages/megaTinyCore/hardware/megaavr/2.6.11/libraries/PTC/src/ptc.c:863
    pPTC->CTRLP    = 0xC0 | 0x20;
    pPTC->SHIELD  = 0x00;
  } else if (nodeType & NODE_SHIELD_bm) { /* NODE_SELFCAP */
     fa0:	23 ff       	sbrs	r18, 3
     fa2:	71 c0       	rjmp	.+226    	; 0x1086 <__vector_7+0x1dc>
/home/wlf-solar/.arduino15/packages/megaTinyCore/hardware/megaavr/2.6.11/libraries/PTC/src/ptc.c:864
    pPTC->CTRLP  = 0x28;
     fa4:	48 e2       	ldi	r20, 0x28	; 40
     fa6:	40 8f       	std	Z+24, r20	; 0x18
/home/wlf-solar/.arduino15/packages/megaTinyCore/hardware/megaavr/2.6.11/libraries/PTC/src/ptc.c:865
    pPTC->SHIELD = 0x86;
     fa8:	46 e8       	ldi	r20, 0x86	; 134
     faa:	46 8f       	std	Z+30, r20	; 0x1e
/home/wlf-solar/.arduino15/packages/megaTinyCore/hardware/megaavr/2.6.11/libraries/PTC/src/ptc.c:873
    pPTC->SHIELD = 0x00;
  } else {
    return;
  }

  pPTC->CTRLA = 0x00;
     fac:	10 82       	st	Z, r1
/home/wlf-solar/.arduino15/packages/megaTinyCore/hardware/megaavr/2.6.11/libraries/PTC/src/ptc.c:880
  uint8_t freq = freq_select;
  if (freq > 0x0F) {    /* FREQ_SELECT_15 */
    freq = ADC_ASDV_bm;
  }

  pPTC->CTRLD = freq;
     fae:	13 82       	std	Z+3, r1	; 0x03
/home/wlf-solar/.arduino15/packages/megaTinyCore/hardware/megaavr/2.6.11/libraries/PTC/src/ptc.c:881
  pPTC->INTFLAGS = ADC_RESRDY_bm | ADC_WCMP_bm; // clear ISR flags, if there were unhandled
     fb0:	43 e0       	ldi	r20, 0x03	; 3
     fb2:	43 87       	std	Z+11, r20	; 0x0b
/home/wlf-solar/.arduino15/packages/megaTinyCore/hardware/megaavr/2.6.11/libraries/PTC/src/ptc.c:883

  currConvType = nodeType;
     fb4:	33 27       	eor	r19, r19
     fb6:	20 93 3c 3e 	sts	0x3E3C, r18	; 0x803e3c <currConvType>
     fba:	30 93 3d 3e 	sts	0x3E3D, r19	; 0x803e3d <currConvType+0x1>
/home/wlf-solar/.arduino15/packages/megaTinyCore/hardware/megaavr/2.6.11/libraries/PTC/src/ptc.c:884
  if (NULL != lowPowerNode) {
     fbe:	a0 91 3a 3e 	lds	r26, 0x3E3A	; 0x803e3a <lowPowerNode>
     fc2:	b0 91 3b 3e 	lds	r27, 0x3E3B	; 0x803e3b <lowPowerNode+0x1>
     fc6:	10 97       	sbiw	r26, 0x00	; 0
     fc8:	09 f4       	brne	.+2      	; 0xfcc <__vector_7+0x122>
     fca:	63 c0       	rjmp	.+198    	; 0x1092 <__vector_7+0x1e8>
/home/wlf-solar/.arduino15/packages/megaTinyCore/hardware/megaavr/2.6.11/libraries/PTC/src/ptc.c:885
    pPTC->INTCTRL = ADC_WCMP_bm;  // Wakeup only above of window
     fcc:	82 e0       	ldi	r24, 0x02	; 2
     fce:	82 87       	std	Z+10, r24	; 0x0a
/home/wlf-solar/.arduino15/packages/megaTinyCore/hardware/megaavr/2.6.11/libraries/PTC/src/ptc.c:886
    pPTC->CTRLE = ADC_WINCM_ABOVE_gc;
     fd0:	84 83       	std	Z+4, r24	; 0x04
/home/wlf-solar/.arduino15/packages/megaTinyCore/hardware/megaavr/2.6.11/libraries/PTC/src/ptc.c:887
    pPTC->WINHT = (lowPowerNode->reference + lowPowerNode->touch_in_th) << (lowPowerNode->hw_gain_ovs & 0x0F);
     fd2:	1f 96       	adiw	r26, 0x0f	; 15
     fd4:	8d 91       	ld	r24, X+
     fd6:	9c 91       	ld	r25, X
     fd8:	50 97       	sbiw	r26, 0x10	; 16
     fda:	51 96       	adiw	r26, 0x11	; 17
     fdc:	2d 91       	ld	r18, X+
     fde:	3c 91       	ld	r19, X
     fe0:	52 97       	sbiw	r26, 0x12	; 18
     fe2:	82 0f       	add	r24, r18
     fe4:	93 1f       	adc	r25, r19
     fe6:	1a 96       	adiw	r26, 0x0a	; 10
     fe8:	2c 91       	ld	r18, X
     fea:	1a 97       	sbiw	r26, 0x0a	; 10
     fec:	2f 70       	andi	r18, 0x0F	; 15
     fee:	02 c0       	rjmp	.+4      	; 0xff4 <__vector_7+0x14a>
     ff0:	88 0f       	add	r24, r24
     ff2:	99 1f       	adc	r25, r25
     ff4:	2a 95       	dec	r18
     ff6:	e2 f7       	brpl	.-8      	; 0xff0 <__vector_7+0x146>
     ff8:	84 8b       	std	Z+20, r24	; 0x14
     ffa:	95 8b       	std	Z+21, r25	; 0x15
/home/wlf-solar/.arduino15/packages/megaTinyCore/hardware/megaavr/2.6.11/libraries/PTC/src/ptc.c:888
    ptc_lib_state = PTC_LIB_EVENT;
     ffc:	84 e0       	ldi	r24, 0x04	; 4
     ffe:	90 e0       	ldi	r25, 0x00	; 0
    1000:	80 93 3e 3e 	sts	0x3E3E, r24	; 0x803e3e <ptc_lib_state>
    1004:	90 93 3f 3e 	sts	0x3E3F, r25	; 0x803e3f <ptc_lib_state+0x1>
/home/wlf-solar/.arduino15/packages/megaTinyCore/hardware/megaavr/2.6.11/libraries/PTC/src/ptc.c:889
    ptc_start_conversion(lowPowerNode);
    1008:	cd 01       	movw	r24, r26
/home/wlf-solar/.arduino15/packages/megaTinyCore/hardware/megaavr/2.6.11/libraries/PTC/src/ptc.c:894
  } else {
    pPTC->INTCTRL = ADC_RESRDY_bm;
    pPTC->CTRLE = ADC_WINCM_NONE_gc;
    ptc_lib_state = PTC_LIB_CONV_PROG;
    ptc_start_conversion(firstNode);
    100a:	dd d9       	rcall	.-3142   	; 0x3c6 <ptc_start_conversion>
__vector_7():
/home/wlf-solar/Documents/bsides-leeds-2026-badge/firmware/firmware.ino:251
    ptc_process(millis());
  }
}
    100c:	ff 91       	pop	r31
    100e:	ef 91       	pop	r30
    1010:	df 91       	pop	r29
    1012:	cf 91       	pop	r28
    1014:	bf 91       	pop	r27
    1016:	af 91       	pop	r26
    1018:	9f 91       	pop	r25
    101a:	8f 91       	pop	r24
    101c:	7f 91       	pop	r23
    101e:	6f 91       	pop	r22
    1020:	5f 91       	pop	r21
    1022:	4f 91       	pop	r20
    1024:	3f 91       	pop	r19
    1026:	2f 91       	pop	r18
    1028:	ff 90       	pop	r15
    102a:	ef 90       	pop	r14
    102c:	df 90       	pop	r13
    102e:	cf 90       	pop	r12
    1030:	0f 90       	pop	r0
    1032:	0f be       	out	0x3f, r0	; 63
    1034:	0f 90       	pop	r0
    1036:	1f 90       	pop	r1
    1038:	18 95       	reti
ptc_process():
/home/wlf-solar/.arduino15/packages/megaTinyCore/hardware/megaavr/2.6.11/libraries/PTC/src/ptc.c:504
      ptc_process_measurement(lowPowerNode);
      if (NULL == lowPowerNode) { // Due to callbacks, low Power node may have been set to NULL by a disable
        currConvType = NODE_TYPE_NOCONV_bm;
        ptc_lib_state = PTC_LIB_IDLE;
      } else {
        PTC.INTCTRL = ADC_WCMP_bm;
    103a:	82 e0       	ldi	r24, 0x02	; 2
    103c:	80 93 0a 06 	sts	0x060A, r24	; 0x80060a <digital_pin_to_bit_mask+0x7f661e>
/home/wlf-solar/.arduino15/packages/megaTinyCore/hardware/megaavr/2.6.11/libraries/PTC/src/ptc.c:505
        ptc_lib_state = PTC_LIB_EVENT;
    1040:	84 e0       	ldi	r24, 0x04	; 4
    1042:	90 e0       	ldi	r25, 0x00	; 0
    1044:	80 93 3e 3e 	sts	0x3E3E, r24	; 0x803e3e <ptc_lib_state>
    1048:	90 93 3f 3e 	sts	0x3E3F, r25	; 0x803e3f <ptc_lib_state+0x1>
    104c:	7b cf       	rjmp	.-266    	; 0xf44 <__vector_7+0x9a>
/home/wlf-solar/.arduino15/packages/megaTinyCore/hardware/megaavr/2.6.11/libraries/PTC/src/ptc.c:508
      }
    }
  } else if (PTC_LIB_CONV_COMPL == ptc_lib_state) {
    104e:	80 91 3e 3e 	lds	r24, 0x3E3E	; 0x803e3e <ptc_lib_state>
    1052:	90 91 3f 3e 	lds	r25, 0x3E3F	; 0x803e3f <ptc_lib_state+0x1>
    1056:	02 97       	sbiw	r24, 0x02	; 2
    1058:	09 f0       	breq	.+2      	; 0x105c <__vector_7+0x1b2>
    105a:	74 cf       	rjmp	.-280    	; 0xf44 <__vector_7+0x9a>
/home/wlf-solar/.arduino15/packages/megaTinyCore/hardware/megaavr/2.6.11/libraries/PTC/src/ptc.c:509
    ptc_lib_state = PTC_LIB_IDLE;
    105c:	10 92 3e 3e 	sts	0x3E3E, r1	; 0x803e3e <ptc_lib_state>
    1060:	10 92 3f 3e 	sts	0x3E3F, r1	; 0x803e3f <ptc_lib_state+0x1>
/home/wlf-solar/.arduino15/packages/megaTinyCore/hardware/megaavr/2.6.11/libraries/PTC/src/ptc.c:510
    for (cap_sensor_t *node = firstNode; node != NULL; node = node->nextNode) {
    1064:	c0 91 42 3e 	lds	r28, 0x3E42	; 0x803e42 <firstNode>
    1068:	d0 91 43 3e 	lds	r29, 0x3E43	; 0x803e43 <firstNode+0x1>
    106c:	20 97       	sbiw	r28, 0x00	; 0
    106e:	29 f4       	brne	.+10     	; 0x107a <__vector_7+0x1d0>
/home/wlf-solar/.arduino15/packages/megaTinyCore/hardware/megaavr/2.6.11/libraries/PTC/src/ptc.c:514
      ptc_process_measurement(node);
    }
    ptc_event_cb_conversion((PTC_CB_EVENT_CONV_CMPL | currConvType), (cap_sensor_t *)currConvNode);
    currConvType = NODE_TYPE_NOCONV_bm;
    1070:	10 92 3c 3e 	sts	0x3E3C, r1	; 0x803e3c <currConvType>
    1074:	10 92 3d 3e 	sts	0x3E3D, r1	; 0x803e3d <currConvType+0x1>
    1078:	65 cf       	rjmp	.-310    	; 0xf44 <__vector_7+0x9a>
/home/wlf-solar/.arduino15/packages/megaTinyCore/hardware/megaavr/2.6.11/libraries/PTC/src/ptc.c:511
      }
    }
  } else if (PTC_LIB_CONV_COMPL == ptc_lib_state) {
    ptc_lib_state = PTC_LIB_IDLE;
    for (cap_sensor_t *node = firstNode; node != NULL; node = node->nextNode) {
      ptc_process_measurement(node);
    107a:	ce 01       	movw	r24, r28
    107c:	fe d9       	rcall	.-3076   	; 0x47a <ptc_process_measurement>
/home/wlf-solar/.arduino15/packages/megaTinyCore/hardware/megaavr/2.6.11/libraries/PTC/src/ptc.c:510
        ptc_lib_state = PTC_LIB_EVENT;
      }
    }
  } else if (PTC_LIB_CONV_COMPL == ptc_lib_state) {
    ptc_lib_state = PTC_LIB_IDLE;
    for (cap_sensor_t *node = firstNode; node != NULL; node = node->nextNode) {
    107e:	09 90       	ld	r0, Y+
    1080:	d8 81       	ld	r29, Y
    1082:	c0 2d       	mov	r28, r0
    1084:	f3 cf       	rjmp	.-26     	; 0x106c <__vector_7+0x1c2>
ptc_init_conversion():
/home/wlf-solar/.arduino15/packages/megaTinyCore/hardware/megaavr/2.6.11/libraries/PTC/src/ptc.c:866
    pPTC->CTRLP    = 0xC0 | 0x20;
    pPTC->SHIELD  = 0x00;
  } else if (nodeType & NODE_SHIELD_bm) { /* NODE_SELFCAP */
    pPTC->CTRLP  = 0x28;
    pPTC->SHIELD = 0x86;
  } else if (nodeType & NODE_SELFCAP_bm) {
    1086:	22 ff       	sbrs	r18, 2
    1088:	c1 cf       	rjmp	.-126    	; 0x100c <__vector_7+0x162>
/home/wlf-solar/.arduino15/packages/megaTinyCore/hardware/megaavr/2.6.11/libraries/PTC/src/ptc.c:867
    pPTC->CTRLP  = 0x28;
    108a:	48 e2       	ldi	r20, 0x28	; 40
    108c:	40 8f       	std	Z+24, r20	; 0x18
/home/wlf-solar/.arduino15/packages/megaTinyCore/hardware/megaavr/2.6.11/libraries/PTC/src/ptc.c:868
    pPTC->SHIELD = 0x00;
    108e:	16 8e       	std	Z+30, r1	; 0x1e
    1090:	8d cf       	rjmp	.-230    	; 0xfac <__vector_7+0x102>
/home/wlf-solar/.arduino15/packages/megaTinyCore/hardware/megaavr/2.6.11/libraries/PTC/src/ptc.c:891
    pPTC->CTRLE = ADC_WINCM_ABOVE_gc;
    pPTC->WINHT = (lowPowerNode->reference + lowPowerNode->touch_in_th) << (lowPowerNode->hw_gain_ovs & 0x0F);
    ptc_lib_state = PTC_LIB_EVENT;
    ptc_start_conversion(lowPowerNode);
  } else {
    pPTC->INTCTRL = ADC_RESRDY_bm;
    1092:	21 e0       	ldi	r18, 0x01	; 1
    1094:	22 87       	std	Z+10, r18	; 0x0a
/home/wlf-solar/.arduino15/packages/megaTinyCore/hardware/megaavr/2.6.11/libraries/PTC/src/ptc.c:892
    pPTC->CTRLE = ADC_WINCM_NONE_gc;
    1096:	14 82       	std	Z+4, r1	; 0x04
/home/wlf-solar/.arduino15/packages/megaTinyCore/hardware/megaavr/2.6.11/libraries/PTC/src/ptc.c:893
    ptc_lib_state = PTC_LIB_CONV_PROG;
    1098:	21 e0       	ldi	r18, 0x01	; 1
    109a:	30 e0       	ldi	r19, 0x00	; 0
    109c:	20 93 3e 3e 	sts	0x3E3E, r18	; 0x803e3e <ptc_lib_state>
    10a0:	30 93 3f 3e 	sts	0x3E3F, r19	; 0x803e3f <ptc_lib_state+0x1>
    10a4:	b2 cf       	rjmp	.-156    	; 0x100a <__vector_7+0x160>

000010a6 <__vector_3>:
__vector_3():
/home/wlf-solar/Documents/bsides-leeds-2026-badge/firmware/firmware.ino:235
  _PROTECTED_WRITE(WDT.CTRLA, WDT_PERIOD_8CLK_gc);
  while (true) { }
}

ISR(PORTA_PORT_vect)
{
    10a6:	1f 92       	push	r1
    10a8:	0f 92       	push	r0
    10aa:	0f b6       	in	r0, 0x3f	; 63
    10ac:	0f 92       	push	r0
    10ae:	11 24       	eor	r1, r1
    10b0:	8f 93       	push	r24
    10b2:	9f 93       	push	r25
/home/wlf-solar/Documents/bsides-leeds-2026-badge/firmware/firmware.ino:236
  PORTA.INTFLAGS = PORT_INT3_bm;
    10b4:	88 e0       	ldi	r24, 0x08	; 8
    10b6:	80 93 09 04 	sts	0x0409, r24	; 0x800409 <digital_pin_to_bit_mask+0x7f641d>
/home/wlf-solar/Documents/bsides-leeds-2026-badge/firmware/firmware.ino:238

  if (rebootOnButtonPress) {
    10ba:	80 91 cf 3e 	lds	r24, 0x3ECF	; 0x803ecf <rebootOnButtonPress>
    10be:	88 23       	and	r24, r24
    10c0:	31 f0       	breq	.+12     	; 0x10ce <__vector_3+0x28>
/home/wlf-solar/Documents/bsides-leeds-2026-badge/firmware/firmware.ino:239
    _PROTECTED_WRITE(WDT.CTRLA, WDT_PERIOD_8CLK_gc);
    10c2:	88 ed       	ldi	r24, 0xD8	; 216
    10c4:	91 e0       	ldi	r25, 0x01	; 1
    10c6:	84 bf       	out	0x34, r24	; 52
    10c8:	90 93 00 01 	sts	0x0100, r25	; 0x800100 <digital_pin_to_bit_mask+0x7f6114>
    10cc:	ff cf       	rjmp	.-2      	; 0x10cc <__vector_3+0x26>
/home/wlf-solar/Documents/bsides-leeds-2026-badge/firmware/firmware.ino:242
    while (true) { }
  }
}
    10ce:	9f 91       	pop	r25
    10d0:	8f 91       	pop	r24
    10d2:	0f 90       	pop	r0
    10d4:	0f be       	out	0x3f, r0	; 63
    10d6:	0f 90       	pop	r0
    10d8:	1f 90       	pop	r1
    10da:	18 95       	reti

000010dc <main>:
main():
/home/wlf-solar/.arduino15/packages/megaTinyCore/hardware/megaavr/2.6.11/cores/megatinycore/main.cpp:49
 * called first in non-optiboot configurations (neither is needed on Optibooot configurations() *
 * an extra bit of initialization code in .init3 to fix the vectors and still happen if user    *
 * overrides main. In the past there was a USB-related function here, that is removed, as work  *
 * will be needed in any event at the core level if VUSB-based "stuff" arrives, but really I'm  *
 * just waiting for the DU-series now                                                           */
int main() {
    10dc:	cf 93       	push	r28
    10de:	df 93       	push	r29
    10e0:	cd b7       	in	r28, 0x3d	; 61
    10e2:	de b7       	in	r29, 0x3e	; 62
    10e4:	6e 97       	sbiw	r28, 0x1e	; 30
    10e6:	cd bf       	out	0x3d, r28	; 61
    10e8:	de bf       	out	0x3e, r29	; 62
init_clock():
/home/wlf-solar/.arduino15/packages/megaTinyCore/hardware/megaavr/2.6.11/cores/megatinycore/wiring.c:460
  #if (CLOCK_SOURCE == 0)
    #if (defined(CLOCK_TUNE_INTERNAL))
      tune_internal(); // Will be inlined as only called once. Just too long and ugly to put two implementations in middle of this.
    #else
      #if defined(_MCLK_CTRLB) && defined(F_CPU) && defined(_MAIN_CLOCK_PRESCALER)
        _PROTECTED_WRITE(CLKCTRL_MCLKCTRLB,_MCLK_CTRLB);
    10ea:	88 ed       	ldi	r24, 0xD8	; 216
    10ec:	90 e0       	ldi	r25, 0x00	; 0
    10ee:	84 bf       	out	0x34, r24	; 52
    10f0:	90 93 61 00 	sts	0x0061, r25	; 0x800061 <digital_pin_to_bit_mask+0x7f6075>
init_ADC0():
/home/wlf-solar/.arduino15/packages/megaTinyCore/hardware/megaavr/2.6.11/cores/megatinycore/wiring.c:552


/********************************* ADC ****************************************/
void __attribute__((weak)) init_ADC0() {
  ADC_t* pADC;
  _fastPtr_d(pADC, &ADC0);
    10f4:	e0 e0       	ldi	r30, 0x00	; 0
    10f6:	f6 e0       	ldi	r31, 0x06	; 6
/home/wlf-solar/.arduino15/packages/megaTinyCore/hardware/megaavr/2.6.11/cores/megatinycore/wiring.c:573
   **************************************************************************/
    //                              30 MHz / 32 = 937 kHz,  32 MHz / 32 =  1 MHz.
    #if   F_CPU   > 24000000     // 24 MHz / 16 = 1.5 MHz,  25 MHz / 32 =  780 kHz
      pADC->CTRLC  = ADC_PRESC_DIV32_gc | ADC_REFSEL_VDDREF_gc | ADC_SAMPCAP_bm;
    #elif F_CPU  >= 12000000    // 16 MHz / 16 = 1.0 MHz,  20 MHz / 16 = 1.25 MHz
      pADC->CTRLC  = ADC_PRESC_DIV16_gc | ADC_REFSEL_VDDREF_gc | ADC_SAMPCAP_bm;
    10f8:	83 e5       	ldi	r24, 0x53	; 83
    10fa:	82 83       	std	Z+2, r24	; 0x02
/home/wlf-solar/.arduino15/packages/megaTinyCore/hardware/megaavr/2.6.11/cores/megatinycore/wiring.c:584
      pADC->CTRLC  =  ADC_PRESC_DIV2_gc | ADC_REFSEL_VDDREF_gc | ADC_SAMPCAP_bm;
    #endif
    #if   (F_CPU == 6000000 || F_CPU == 12000000 || F_CPU == 24000000 || F_CPU ==25000000)
      pADC->SAMPCTRL = (7); // 9 ADC clocks, 12 us
    #elif (F_CPU == 5000000 || F_CPU == 10000000 || F_CPU == 20000000)
      pADC->SAMPCTRL = (13);   // 15 ADC clock,s 12 us
    10fc:	8d e0       	ldi	r24, 0x0D	; 13
    10fe:	85 83       	std	Z+5, r24	; 0x05
/home/wlf-solar/.arduino15/packages/megaTinyCore/hardware/megaavr/2.6.11/cores/megatinycore/wiring.c:588
    #else
      pADC->SAMPCTRL = (10); // 12 ADC clocks, 12 us
    #endif
    pADC->CTRLD    = ADC_INITDLY_DLY16_gc;
    1100:	80 e2       	ldi	r24, 0x20	; 32
    1102:	83 83       	std	Z+3, r24	; 0x03
/home/wlf-solar/.arduino15/packages/megaTinyCore/hardware/megaavr/2.6.11/cores/megatinycore/wiring.c:589
    pADC->CTRLA    = ADC_ENABLE_bm;
    1104:	81 e0       	ldi	r24, 0x01	; 1
    1106:	80 83       	st	Z, r24
init_TCA0():
/home/wlf-solar/.arduino15/packages/megaTinyCore/hardware/megaavr/2.6.11/cores/megatinycore/wiring.c:680

void __attribute__((weak)) init_TCA0() {
  /*  TYPE A TIMER   */
  #if !defined(TCA_BUFFERED_3PIN)
    #if defined(PORTMUX_CTRLC)
      PORTMUX.CTRLC = TCA_PORTMUX;
    1108:	10 92 02 02 	sts	0x0202, r1	; 0x800202 <digital_pin_to_bit_mask+0x7f6216>
/home/wlf-solar/.arduino15/packages/megaTinyCore/hardware/megaavr/2.6.11/cores/megatinycore/wiring.c:684
    #else
      PORTMUX.TCAROUTEA = TCA_PORTMUX;
    #endif
    TCA0.SPLIT.CTRLD   = TCA_SPLIT_SPLITM_bm;
    110c:	80 93 03 0a 	sts	0x0A03, r24	; 0x800a03 <digital_pin_to_bit_mask+0x7f6a17>
/home/wlf-solar/.arduino15/packages/megaTinyCore/hardware/megaavr/2.6.11/cores/megatinycore/wiring.c:685
    TCA0.SPLIT.LPER    = PWM_TIMER_PERIOD;
    1110:	9e ef       	ldi	r25, 0xFE	; 254
    1112:	90 93 26 0a 	sts	0x0A26, r25	; 0x800a26 <digital_pin_to_bit_mask+0x7f6a3a>
/home/wlf-solar/.arduino15/packages/megaTinyCore/hardware/megaavr/2.6.11/cores/megatinycore/wiring.c:686
    TCA0.SPLIT.HPER    = PWM_TIMER_PERIOD;
    1116:	90 93 27 0a 	sts	0x0A27, r25	; 0x800a27 <digital_pin_to_bit_mask+0x7f6a3b>
/home/wlf-solar/.arduino15/packages/megaTinyCore/hardware/megaavr/2.6.11/cores/megatinycore/wiring.c:687
    TCA0.SPLIT.CTRLA   = (_TIMERA_PRESCALER | TCA_SPLIT_ENABLE_bm);
    111a:	9b e0       	ldi	r25, 0x0B	; 11
    111c:	90 93 00 0a 	sts	0x0A00, r25	; 0x800a00 <digital_pin_to_bit_mask+0x7f6a14>
init_millis():
/home/wlf-solar/.arduino15/packages/megaTinyCore/hardware/megaavr/2.6.11/cores/megatinycore/wiring.c:345
      #else
        TCA0.SINGLE.INTCTRL = TCA_SINGLE_OVF_bm;
      #endif
    #elif defined(MILLIS_USE_TIMERD0)
      TCD_t* pTCD;
      _fastPtr_d(pTCD, &TCD0);
    1120:	e0 e8       	ldi	r30, 0x80	; 128
    1122:	fa e0       	ldi	r31, 0x0A	; 10
/home/wlf-solar/.arduino15/packages/megaTinyCore/hardware/megaavr/2.6.11/cores/megatinycore/wiring.c:346
      pTCD->CMPBCLR        = TIME_TRACKING_TIMER_PERIOD; // essentially, this is TOP
    1124:	2d ef       	ldi	r18, 0xFD	; 253
    1126:	31 e0       	ldi	r19, 0x01	; 1
    1128:	26 a7       	std	Z+46, r18	; 0x2e
    112a:	37 a7       	std	Z+47, r19	; 0x2f
/home/wlf-solar/.arduino15/packages/megaTinyCore/hardware/megaavr/2.6.11/cores/megatinycore/wiring.c:347
      pTCD->CTRLB          = 0x00; // oneramp mode
    112c:	11 82       	std	Z+1, r1	; 0x01
/home/wlf-solar/.arduino15/packages/megaTinyCore/hardware/megaavr/2.6.11/cores/megatinycore/wiring.c:348
      pTCD->CTRLC          = 0x80;
    112e:	90 e8       	ldi	r25, 0x80	; 128
    1130:	92 83       	std	Z+2, r25	; 0x02
/home/wlf-solar/.arduino15/packages/megaTinyCore/hardware/megaavr/2.6.11/cores/megatinycore/wiring.c:349
      pTCD->INTCTRL        = 0x01; // enable interrupt
    1132:	84 87       	std	Z+12, r24	; 0x0c
/home/wlf-solar/.arduino15/packages/megaTinyCore/hardware/megaavr/2.6.11/cores/megatinycore/wiring.c:350
      pTCD->CTRLA          = _TIMERD0_PRESCALER | 0x01; // set clock source and enable!
    1134:	81 e1       	ldi	r24, 0x11	; 17
    1136:	80 83       	st	Z, r24
main():
/home/wlf-solar/.arduino15/packages/megaTinyCore/hardware/megaavr/2.6.11/cores/megatinycore/main.cpp:53
  onBeforeInit(); // Emnpty callback called before init but after the .init stuff. First normal code executed
  init(); // Interrupts are turned on just prior to init() returning.
  initVariant();
  if (!onAfterInit()) sei();  // enable interrupts.
    1138:	78 94       	sei
setup():
/home/wlf-solar/Documents/bsides-leeds-2026-badge/firmware/firmware.ino:1259
  totalIntervalMs = 0;
}

void setup()
{
  pinMode(PIN_PA1, OUTPUT);
    113a:	61 e0       	ldi	r22, 0x01	; 1
    113c:	88 e0       	ldi	r24, 0x08	; 8
    113e:	5e dc       	rcall	.-1860   	; 0x9fc <pinMode>
/home/wlf-solar/Documents/bsides-leeds-2026-badge/firmware/firmware.ino:1260
  pinMode(PIN_PA2, OUTPUT);
    1140:	61 e0       	ldi	r22, 0x01	; 1
    1142:	89 e0       	ldi	r24, 0x09	; 9
    1144:	5b dc       	rcall	.-1866   	; 0x9fc <pinMode>
/home/wlf-solar/Documents/bsides-leeds-2026-badge/firmware/firmware.ino:1261
  pinMode(PIN_PB2, OUTPUT);
    1146:	61 e0       	ldi	r22, 0x01	; 1
    1148:	85 e0       	ldi	r24, 0x05	; 5
    114a:	58 dc       	rcall	.-1872   	; 0x9fc <pinMode>
/home/wlf-solar/Documents/bsides-leeds-2026-badge/firmware/firmware.ino:1262
  pinMode(PIN_PB3, OUTPUT);
    114c:	61 e0       	ldi	r22, 0x01	; 1
    114e:	84 e0       	ldi	r24, 0x04	; 4
    1150:	55 dc       	rcall	.-1878   	; 0x9fc <pinMode>
/home/wlf-solar/Documents/bsides-leeds-2026-badge/firmware/firmware.ino:1264

  pinMode(LED_DATA_PIN, OUTPUT);
    1152:	61 e0       	ldi	r22, 0x01	; 1
    1154:	84 e0       	ldi	r24, 0x04	; 4
    1156:	52 dc       	rcall	.-1884   	; 0x9fc <pinMode>
/home/wlf-solar/Documents/bsides-leeds-2026-badge/firmware/firmware.ino:1265
  pinMode(WAKE_BUTTON_PIN, INPUT_PULLUP);
    1158:	62 e0       	ldi	r22, 0x02	; 2
    115a:	8a e0       	ldi	r24, 0x0A	; 10
    115c:	4f dc       	rcall	.-1890   	; 0x9fc <pinMode>
/home/wlf-solar/Documents/bsides-leeds-2026-badge/firmware/firmware.ino:1266
  digitalWrite(LED_POWER_PIN, HIGH);
    115e:	81 e0       	ldi	r24, 0x01	; 1
    1160:	2d dc       	rcall	.-1958   	; 0x9bc <digitalWrite.constprop.13>
initRtc():
/home/wlf-solar/Documents/bsides-leeds-2026-badge/firmware/firmware.ino:185
  shouldProcessPtc = true;
}

void initRtc()
{
  while (RTC.STATUS > 0) {
    1162:	80 91 41 01 	lds	r24, 0x0141	; 0x800141 <digital_pin_to_bit_mask+0x7f6155>
    1166:	81 11       	cpse	r24, r1
    1168:	fc cf       	rjmp	.-8      	; 0x1162 <main+0x86>
/home/wlf-solar/Documents/bsides-leeds-2026-badge/firmware/firmware.ino:189
    ;
  }

  RTC.CLKSEL = RTC_CLKSEL_INT1K_gc;
    116a:	81 e0       	ldi	r24, 0x01	; 1
    116c:	80 93 47 01 	sts	0x0147, r24	; 0x800147 <digital_pin_to_bit_mask+0x7f615b>
    1170:	80 91 42 3e 	lds	r24, 0x3E42	; 0x803e42 <firstNode>
    1174:	90 91 43 3e 	lds	r25, 0x3E43	; 0x803e43 <firstNode+0x1>
    1178:	28 ec       	ldi	r18, 0xC8	; 200
    117a:	3f e9       	ldi	r19, 0x9F	; 159
    117c:	e4 e4       	ldi	r30, 0x44	; 68
    117e:	fe e3       	ldi	r31, 0x3E	; 62
    1180:	be ec       	ldi	r27, 0xCE	; 206
    1182:	6b 2e       	mov	r6, r27
    1184:	bf e9       	ldi	r27, 0x9F	; 159
    1186:	7b 2e       	mov	r7, r27
ptc_add_node():
/home/wlf-solar/.arduino15/packages/megaTinyCore/hardware/megaavr/2.6.11/libraries/PTC/src/ptc.c:269
    return status;
  }


  memcpy(node->hw_xCh_bm, pCh, typesize * 2); // copies x and y channel
  node->type = type;
    1188:	04 e0       	ldi	r16, 0x04	; 4
    118a:	10 e0       	ldi	r17, 0x00	; 0
/home/wlf-solar/.arduino15/packages/megaTinyCore/hardware/megaavr/2.6.11/libraries/PTC/src/ptc.c:300
  if ((xCh | yCh) == 0) {         /* not a single pin selected */
    return PTC_LIB_BAD_ARGUMENT;
  }
  #endif

  node->hw_gain_ovs = NODE_GAIN(0, ADC_SAMPNUM_ACC16_gc);
    118c:	44 e0       	ldi	r20, 0x04	; 4
    118e:	84 2e       	mov	r8, r20
/home/wlf-solar/.arduino15/packages/megaTinyCore/hardware/megaavr/2.6.11/libraries/PTC/src/ptc.c:315
    }
    if (xCh != 0) {
      node->type = NODE_SELFCAP_SHIELD_bm;
    }

    node->touch_in_th = 20;
    1190:	54 e1       	ldi	r21, 0x14	; 20
    1192:	e5 2e       	mov	r14, r21
    1194:	f1 2c       	mov	r15, r1
/home/wlf-solar/.arduino15/packages/megaTinyCore/hardware/megaavr/2.6.11/libraries/PTC/src/ptc.c:316
    node->touch_out_th = 10;
    1196:	6a e0       	ldi	r22, 0x0A	; 10
    1198:	70 e0       	ldi	r23, 0x00	; 0
/home/wlf-solar/.arduino15/packages/megaTinyCore/hardware/megaavr/2.6.11/libraries/PTC/src/ptc.c:317
    node->hw_compCaps = PTC_DEFAULT_SC_CC;  /* value from qTouch */
    119a:	a7 e6       	ldi	r26, 0x67	; 103
    119c:	ca 2e       	mov	r12, r26
    119e:	a5 e0       	ldi	r26, 0x05	; 5
    11a0:	da 2e       	mov	r13, r26
/home/wlf-solar/.arduino15/packages/megaTinyCore/hardware/megaavr/2.6.11/libraries/PTC/src/ptc.c:318
    node->hw_rsel_presc = NODE_RSEL_PRSC(RSEL_VAL_0, PTC_PRESC_DEFAULT);
    11a2:	b3 e0       	ldi	r27, 0x03	; 3
    11a4:	5b 2e       	mov	r5, r27
ptc_node_set_oversamples():
/home/wlf-solar/.arduino15/packages/megaTinyCore/hardware/megaavr/2.6.11/libraries/PTC/src/ptc.c:176
      badArg("Digital Gain too high. Max Digital Gain Value is 0x06 (equals 64x)");
    }
    return PTC_LIB_BAD_ARGUMENT;
  }
  uint8_t gain = node->hw_gain_ovs & 0xF0;
  node->hw_gain_ovs = gain | ovs;
    11a6:	44 ef       	ldi	r20, 0xF4	; 244
    11a8:	34 2e       	mov	r3, r20
ptc_node_set_thresholds():
/home/wlf-solar/.arduino15/packages/megaTinyCore/hardware/megaavr/2.6.11/libraries/PTC/src/ptc.c:106
uint8_t ptc_node_set_thresholds(cap_sensor_t *node, int16_t th_in, int16_t th_out) {
  if (NULL == node) {
    return PTC_LIB_BAD_POINTER;
  }
  if (th_in != 0) {
    node->touch_in_th = th_in;
    11aa:	50 e5       	ldi	r21, 0x50	; 80
    11ac:	a5 2e       	mov	r10, r21
    11ae:	b1 2c       	mov	r11, r1
setupTouchButtons():
/home/wlf-solar/Documents/bsides-leeds-2026-badge/firmware/firmware.ino:133
{
  for (uint8_t buttonIndex = 0; buttonIndex < NUM_TOUCH_BUTTONS; ++buttonIndex) {
    const uint8_t result = ptc_add_selfcap_node(
      &touchButtons[buttonIndex],
      0,
      PIN_TO_PTC(TOUCH_BUTTON_PINS[buttonIndex])
    11b0:	d9 01       	movw	r26, r18
    11b2:	4d 91       	ld	r20, X+
    11b4:	9d 01       	movw	r18, r26
main():
/home/wlf-solar/Documents/bsides-leeds-2026-badge/firmware/firmware.ino:130
}

void setupTouchButtons()
{
  for (uint8_t buttonIndex = 0; buttonIndex < NUM_TOUCH_BUTTONS; ++buttonIndex) {
    const uint8_t result = ptc_add_selfcap_node(
    11b6:	91 2c       	mov	r9, r1
setupTouchButtons():
    11b8:	4c 30       	cpi	r20, 0x0C	; 12
    11ba:	28 f4       	brcc	.+10     	; 0x11c6 <main+0xea>
/home/wlf-solar/Documents/bsides-leeds-2026-badge/firmware/firmware.ino:133
      &touchButtons[buttonIndex],
      0,
      PIN_TO_PTC(TOUCH_BUTTON_PINS[buttonIndex])
    11bc:	a4 2f       	mov	r26, r20
    11be:	b0 e0       	ldi	r27, 0x00	; 0
/home/wlf-solar/Documents/bsides-leeds-2026-badge/firmware/firmware.ino:130
}

void setupTouchButtons()
{
  for (uint8_t buttonIndex = 0; buttonIndex < NUM_TOUCH_BUTTONS; ++buttonIndex) {
    const uint8_t result = ptc_add_selfcap_node(
    11c0:	a4 54       	subi	r26, 0x44	; 68
    11c2:	b0 46       	sbci	r27, 0x60	; 96
    11c4:	9c 90       	ld	r9, X
ptc_add_node():
/home/wlf-solar/.arduino15/packages/megaTinyCore/hardware/megaavr/2.6.11/libraries/PTC/src/ptc.c:257

uint8_t ptc_add_node(cap_sensor_t *node, uint8_t *pCh, const uint8_t type) {
  const uint8_t typesize = sizeof(ptc_ch_arr_t);

  uint8_t hi_node = (uint8_t)((uint16_t)node >> 8);
  if ((hi_node < (uint8_t)(RAMSTART >> 8)) || (hi_node >= (uint8_t)(RAMEND >> 8))) {
    11c6:	fe 33       	cpi	r31, 0x3E	; 62
    11c8:	09 f0       	breq	.+2      	; 0x11cc <main+0xf0>
    11ca:	3a c1       	rjmp	.+628    	; 0x1440 <main+0x364>
ptc_get_last_node():
/home/wlf-solar/.arduino15/packages/megaTinyCore/hardware/megaavr/2.6.11/libraries/PTC/src/ptc.c:1043



// returns the last node in the list, or NULL if list empty.
cap_sensor_t *ptc_get_last_node(void) {
  if (firstNode == NULL) {
    11cc:	dc 01       	movw	r26, r24
    11ce:	00 97       	sbiw	r24, 0x00	; 0
    11d0:	09 f0       	breq	.+2      	; 0x11d4 <main+0xf8>
    11d2:	2d c1       	rjmp	.+602    	; 0x142e <main+0x352>
ptc_append_node():
/home/wlf-solar/.arduino15/packages/megaTinyCore/hardware/megaavr/2.6.11/libraries/PTC/src/ptc.c:1065
uint8_t ptc_append_node(cap_sensor_t *pNewNode) {

  cap_sensor_t *lastNode = ptc_get_last_node();
  if (lastNode == NULL) {
    firstNode = pNewNode;
    pNewNode->id = 0;
    11d4:	14 82       	std	Z+4, r1	; 0x04
setupTouchButtons():
/home/wlf-solar/Documents/bsides-leeds-2026-badge/firmware/firmware.ino:130
    11d6:	cf 01       	movw	r24, r30
ptc_add_node():
/home/wlf-solar/.arduino15/packages/megaTinyCore/hardware/megaavr/2.6.11/libraries/PTC/src/ptc.c:268
  if (status != PTC_LIB_SUCCESS) {
    return status;
  }


  memcpy(node->hw_xCh_bm, pCh, typesize * 2); // copies x and y channel
    11d8:	15 82       	std	Z+5, r1	; 0x05
    11da:	96 82       	std	Z+6, r9	; 0x06
/home/wlf-solar/.arduino15/packages/megaTinyCore/hardware/megaavr/2.6.11/libraries/PTC/src/ptc.c:269
  node->type = type;
    11dc:	02 83       	std	Z+2, r16	; 0x02
    11de:	13 83       	std	Z+3, r17	; 0x03
/home/wlf-solar/.arduino15/packages/megaTinyCore/hardware/megaavr/2.6.11/libraries/PTC/src/ptc.c:279
  if ((xCh & yCh) != 0) {           /* overlap */
    return PTC_LIB_BAD_ARGUMENT;
  }
  ptc_ch_bm_t pinmask = xCh | yCh;

  if (pinmask == 0) {               /* not a single pin selected */
    11e0:	99 20       	and	r9, r9
    11e2:	09 f4       	brne	.+2      	; 0x11e6 <main+0x10a>
    11e4:	2d c1       	rjmp	.+602    	; 0x1440 <main+0x364>
/home/wlf-solar/.arduino15/packages/megaTinyCore/hardware/megaavr/2.6.11/libraries/PTC/src/ptc.c:300
  if ((xCh | yCh) == 0) {         /* not a single pin selected */
    return PTC_LIB_BAD_ARGUMENT;
  }
  #endif

  node->hw_gain_ovs = NODE_GAIN(0, ADC_SAMPNUM_ACC16_gc);
    11e6:	82 86       	std	Z+10, r8	; 0x0a
/home/wlf-solar/.arduino15/packages/megaTinyCore/hardware/megaavr/2.6.11/libraries/PTC/src/ptc.c:315
    }
    if (xCh != 0) {
      node->type = NODE_SELFCAP_SHIELD_bm;
    }

    node->touch_in_th = 20;
    11e8:	e1 8a       	std	Z+17, r14	; 0x11
    11ea:	f2 8a       	std	Z+18, r15	; 0x12
/home/wlf-solar/.arduino15/packages/megaTinyCore/hardware/megaavr/2.6.11/libraries/PTC/src/ptc.c:316
    node->touch_out_th = 10;
    11ec:	63 8b       	std	Z+19, r22	; 0x13
    11ee:	74 8b       	std	Z+20, r23	; 0x14
/home/wlf-solar/.arduino15/packages/megaTinyCore/hardware/megaavr/2.6.11/libraries/PTC/src/ptc.c:317
    node->hw_compCaps = PTC_DEFAULT_SC_CC;  /* value from qTouch */
    11f0:	c7 82       	std	Z+7, r12	; 0x07
    11f2:	d0 86       	std	Z+8, r13	; 0x08
/home/wlf-solar/.arduino15/packages/megaTinyCore/hardware/megaavr/2.6.11/libraries/PTC/src/ptc.c:318
    node->hw_rsel_presc = NODE_RSEL_PRSC(RSEL_VAL_0, PTC_PRESC_DEFAULT);
    11f4:	51 86       	std	Z+9, r5	; 0x09
/home/wlf-solar/.arduino15/packages/megaTinyCore/hardware/megaavr/2.6.11/libraries/PTC/src/ptc.c:322
  }

  #if defined(__PTC_Tiny__)
  PTC.PIN_OVR |= pinmask;
    11f6:	40 91 22 06 	lds	r20, 0x0622	; 0x800622 <digital_pin_to_bit_mask+0x7f6636>
    11fa:	50 91 23 06 	lds	r21, 0x0623	; 0x800623 <digital_pin_to_bit_mask+0x7f6637>
    11fe:	49 29       	or	r20, r9
    1200:	40 93 22 06 	sts	0x0622, r20	; 0x800622 <digital_pin_to_bit_mask+0x7f6636>
    1204:	50 93 23 06 	sts	0x0623, r21	; 0x800623 <digital_pin_to_bit_mask+0x7f6637>
    1208:	46 eb       	ldi	r20, 0xB6	; 182
    120a:	5f e9       	ldi	r21, 0x9F	; 159
    120c:	a6 e0       	ldi	r26, 0x06	; 6
    120e:	4a 2e       	mov	r4, r26
/home/wlf-solar/.arduino15/packages/megaTinyCore/hardware/megaavr/2.6.11/libraries/PTC/src/ptc.c:328
  uint8_t *pin_lut = (uint8_t *)ptc_ch_to_pin;
  for (uint8_t i = 0; i < sizeof(ptc_ch_to_pin); i++) { /* 6 or 14 iterations */
    uint8_t offset = *(pin_lut++);
    uint16_t basePointer = (uint16_t)&PORTA;
    uint8_t *portSettings = (uint8_t *)(offset + basePointer);
    if ((uint8_t)pinmask & 0x01) {
    1210:	90 fe       	sbrs	r9, 0
    1212:	06 c0       	rjmp	.+12     	; 0x1220 <main+0x144>
/home/wlf-solar/.arduino15/packages/megaTinyCore/hardware/megaavr/2.6.11/libraries/PTC/src/ptc.c:327
  PTC.PIN_OVR |= pinmask;
  uint8_t *pin_lut = (uint8_t *)ptc_ch_to_pin;
  for (uint8_t i = 0; i < sizeof(ptc_ch_to_pin); i++) { /* 6 or 14 iterations */
    uint8_t offset = *(pin_lut++);
    uint16_t basePointer = (uint16_t)&PORTA;
    uint8_t *portSettings = (uint8_t *)(offset + basePointer);
    1214:	da 01       	movw	r26, r20
    1216:	2c 90       	ld	r2, X
    1218:	a2 2d       	mov	r26, r2
    121a:	b0 e0       	ldi	r27, 0x00	; 0
/home/wlf-solar/.arduino15/packages/megaTinyCore/hardware/megaavr/2.6.11/libraries/PTC/src/ptc.c:329
    if ((uint8_t)pinmask & 0x01) {
      (*portSettings) = PORT_ISC_INPUT_DISABLE_gc;
    121c:	bc 5f       	subi	r27, 0xFC	; 252
    121e:	8c 92       	st	X, r8
/home/wlf-solar/.arduino15/packages/megaTinyCore/hardware/megaavr/2.6.11/libraries/PTC/src/ptc.c:331
    }
    pinmask >>= 1;
    1220:	96 94       	lsr	r9
    1222:	4a 94       	dec	r4
    1224:	4f 5f       	subi	r20, 0xFF	; 255
    1226:	5f 4f       	sbci	r21, 0xFF	; 255
/home/wlf-solar/.arduino15/packages/megaTinyCore/hardware/megaavr/2.6.11/libraries/PTC/src/ptc.c:324
  }

  #if defined(__PTC_Tiny__)
  PTC.PIN_OVR |= pinmask;
  uint8_t *pin_lut = (uint8_t *)ptc_ch_to_pin;
  for (uint8_t i = 0; i < sizeof(ptc_ch_to_pin); i++) { /* 6 or 14 iterations */
    1228:	41 10       	cpse	r4, r1
    122a:	f2 cf       	rjmp	.-28     	; 0x1210 <main+0x134>
ptc_node_set_oversamples():
/home/wlf-solar/.arduino15/packages/megaTinyCore/hardware/megaavr/2.6.11/libraries/PTC/src/ptc.c:176
      badArg("Digital Gain too high. Max Digital Gain Value is 0x06 (equals 64x)");
    }
    return PTC_LIB_BAD_ARGUMENT;
  }
  uint8_t gain = node->hw_gain_ovs & 0xF0;
  node->hw_gain_ovs = gain | ovs;
    122c:	32 86       	std	Z+10, r3	; 0x0a
ptc_node_set_thresholds():
/home/wlf-solar/.arduino15/packages/megaTinyCore/hardware/megaavr/2.6.11/libraries/PTC/src/ptc.c:106
uint8_t ptc_node_set_thresholds(cap_sensor_t *node, int16_t th_in, int16_t th_out) {
  if (NULL == node) {
    return PTC_LIB_BAD_POINTER;
  }
  if (th_in != 0) {
    node->touch_in_th = th_in;
    122e:	a1 8a       	std	Z+17, r10	; 0x11
    1230:	b2 8a       	std	Z+18, r11	; 0x12
/home/wlf-solar/.arduino15/packages/megaTinyCore/hardware/megaavr/2.6.11/libraries/PTC/src/ptc.c:109
  }
  if (th_out != 0) {
    node->touch_out_th = th_out;
    1232:	63 8b       	std	Z+19, r22	; 0x13
    1234:	74 8b       	std	Z+20, r23	; 0x14
    1236:	77 96       	adiw	r30, 0x17	; 23
setupTouchButtons():
/home/wlf-solar/Documents/bsides-leeds-2026-badge/firmware/firmware.ino:129
  return pressedMask;
}

void setupTouchButtons()
{
  for (uint8_t buttonIndex = 0; buttonIndex < NUM_TOUCH_BUTTONS; ++buttonIndex) {
    1238:	62 16       	cp	r6, r18
    123a:	73 06       	cpc	r7, r19
    123c:	09 f0       	breq	.+2      	; 0x1240 <main+0x164>
    123e:	b8 cf       	rjmp	.-144    	; 0x11b0 <main+0xd4>
    1240:	80 93 42 3e 	sts	0x3E42, r24	; 0x803e42 <firstNode>
    1244:	90 93 43 3e 	sts	0x3E43, r25	; 0x803e43 <firstNode+0x1>
operator*():
/home/wlf-solar/.arduino15/packages/megaTinyCore/hardware/megaavr/2.6.11/libraries/EEPROM/src/EEPROM.h:62
  EERef(const INDEXDATATYPE index)
    : index(index)                 {}

  // Access/read members.
  uint8_t operator * () const            {
    return (*(uint8_t *)((uint16_t)(MAPPED_EEPROM_START + (index & EEPROM_INDEX_MASK))));
    1248:	80 91 00 14 	lds	r24, 0x1400	; 0x801400 <digital_pin_to_bit_mask+0x7f7414>
setup():
/home/wlf-solar/Documents/bsides-leeds-2026-badge/firmware/firmware.ino:1271
  digitalWrite(LED_POWER_PIN, HIGH);

  initRtc();
  setupTouchButtons();

  state = EEPROM.read(0);
    124c:	80 93 d0 3e 	sts	0x3ED0, r24	; 0x803ed0 <state>
    1250:	6c e0       	ldi	r22, 0x0C	; 12
    1252:	c6 2e       	mov	r12, r22
    1254:	d1 2c       	mov	r13, r1
    1256:	10 e0       	ldi	r17, 0x00	; 0
    1258:	00 e0       	ldi	r16, 0x00	; 0
bootScatter():
/home/wlf-solar/Documents/bsides-leeds-2026-badge/firmware/firmware.ino:957
void bootScatter(uint16_t durationMs)
{
  uint16_t elapsed = 0;
  while (elapsed < durationMs) {
    for (uint8_t i = 0; i < NUM_LEDS; ++i) {
      if ((nextRandomByte() & 0x03) == 0) {
    125a:	82 db       	rcall	.-2300   	; 0x960 <nextRandomByte()>
    125c:	83 70       	andi	r24, 0x03	; 3
    125e:	b1 f4       	brne	.+44     	; 0x128c <main+0x1b0>
/home/wlf-solar/Documents/bsides-leeds-2026-badge/firmware/firmware.ino:958
        uint8_t b = nextRandomByte() & 0x0F;
    1260:	7f db       	rcall	.-2306   	; 0x960 <nextRandomByte()>
    1262:	8f 70       	andi	r24, 0x0F	; 15
    1264:	f8 2e       	mov	r15, r24
/home/wlf-solar/Documents/bsides-leeds-2026-badge/firmware/firmware.ino:960
        // bias toward cyan/purple — v01d palette bleeding through noise
        uint8_t which = nextRandomByte() & 0x03;
    1266:	7c db       	rcall	.-2312   	; 0x960 <nextRandomByte()>
    1268:	83 70       	andi	r24, 0x03	; 3
/home/wlf-solar/Documents/bsides-leeds-2026-badge/firmware/firmware.ino:961
        if (which == 0)      ledStrip.setPixelColor(i, 0, b, b * 2);
    126a:	2f 2d       	mov	r18, r15
    126c:	22 0f       	add	r18, r18
    126e:	4f 2d       	mov	r20, r15
    1270:	88 23       	and	r24, r24
    1272:	09 f4       	brne	.+2      	; 0x1276 <main+0x19a>
    1274:	ee c0       	rjmp	.+476    	; 0x1452 <main+0x376>
/home/wlf-solar/Documents/bsides-leeds-2026-badge/firmware/firmware.ino:963
        else if (which == 1) ledStrip.setPixelColor(i, b, 0, b * 2);
        else                 ledStrip.setPixelColor(i, 0, 0, 0);
    1276:	20 e0       	ldi	r18, 0x00	; 0
    1278:	40 e0       	ldi	r20, 0x00	; 0
/home/wlf-solar/Documents/bsides-leeds-2026-badge/firmware/firmware.ino:962
      if ((nextRandomByte() & 0x03) == 0) {
        uint8_t b = nextRandomByte() & 0x0F;
        // bias toward cyan/purple — v01d palette bleeding through noise
        uint8_t which = nextRandomByte() & 0x03;
        if (which == 0)      ledStrip.setPixelColor(i, 0, b, b * 2);
        else if (which == 1) ledStrip.setPixelColor(i, b, 0, b * 2);
    127a:	81 30       	cpi	r24, 0x01	; 1
    127c:	09 f0       	breq	.+2      	; 0x1280 <main+0x1a4>
    127e:	e9 c0       	rjmp	.+466    	; 0x1452 <main+0x376>
    1280:	2f 2d       	mov	r18, r15
    1282:	22 0f       	add	r18, r18
    1284:	40 e0       	ldi	r20, 0x00	; 0
    1286:	6f 2d       	mov	r22, r15
/home/wlf-solar/Documents/bsides-leeds-2026-badge/firmware/firmware.ino:963
        else                 ledStrip.setPixelColor(i, 0, 0, 0);
    1288:	c8 01       	movw	r24, r16
    128a:	5a d7       	rcall	.+3764   	; 0x2140 <__TEXT_REGION_LENGTH__+0x140>
    128c:	0f 5f       	subi	r16, 0xFF	; 255
    128e:	1f 4f       	sbci	r17, 0xFF	; 255
/home/wlf-solar/Documents/bsides-leeds-2026-badge/firmware/firmware.ino:956
// Stage 1: corrupt scatter — raw noise across all LEDs
void bootScatter(uint16_t durationMs)
{
  uint16_t elapsed = 0;
  while (elapsed < durationMs) {
    for (uint8_t i = 0; i < NUM_LEDS; ++i) {
    1290:	02 31       	cpi	r16, 0x12	; 18
    1292:	11 05       	cpc	r17, r1
    1294:	11 f7       	brne	.-60     	; 0x125a <main+0x17e>
/home/wlf-solar/Documents/bsides-leeds-2026-badge/firmware/firmware.ino:966
        if (which == 0)      ledStrip.setPixelColor(i, 0, b, b * 2);
        else if (which == 1) ledStrip.setPixelColor(i, b, 0, b * 2);
        else                 ledStrip.setPixelColor(i, 0, 0, 0);
      }
    }
    ledStrip.show();
    1296:	10 d8       	rcall	.-4064   	; 0x2b8 <tinyNeoPixel::show() [clone .constprop.20]>
delay():
    1298:	63 e2       	ldi	r22, 0x23	; 35
    129a:	70 e0       	ldi	r23, 0x00	; 0
    129c:	80 e0       	ldi	r24, 0x00	; 0
    129e:	90 e0       	ldi	r25, 0x00	; 0
    12a0:	95 d7       	rcall	.+3882   	; 0x21cc <__TEXT_REGION_LENGTH__+0x1cc>
    12a2:	b1 e0       	ldi	r27, 0x01	; 1
    12a4:	cb 1a       	sub	r12, r27
    12a6:	d1 08       	sbc	r13, r1
bootScatter():
/home/wlf-solar/Documents/bsides-leeds-2026-badge/firmware/firmware.ino:955

// Stage 1: corrupt scatter — raw noise across all LEDs
void bootScatter(uint16_t durationMs)
{
  uint16_t elapsed = 0;
  while (elapsed < durationMs) {
    12a8:	b1 f6       	brne	.-84     	; 0x1256 <main+0x17a>
/home/wlf-solar/Documents/bsides-leeds-2026-badge/firmware/firmware.ino:970
    }
    ledStrip.show();
    delay(35);
    elapsed += 35;
  }
  setAllLeds(COLOR_OFF, true);
    12aa:	60 90 d1 9f 	lds	r6, 0x9FD1	; 0x809fd1 <__bss_end+0x60e1>
    12ae:	70 90 d2 9f 	lds	r7, 0x9FD2	; 0x809fd2 <__bss_end+0x60e2>
    12b2:	80 90 d3 9f 	lds	r8, 0x9FD3	; 0x809fd3 <__bss_end+0x60e3>
    12b6:	41 e0       	ldi	r20, 0x01	; 1
    12b8:	88 2d       	mov	r24, r8
    12ba:	b3 01       	movw	r22, r6
    12bc:	72 da       	rcall	.-2844   	; 0x7a2 <setAllLeds(RgbColor, bool)>
delay():
    12be:	6c e3       	ldi	r22, 0x3C	; 60
    12c0:	70 e0       	ldi	r23, 0x00	; 0
    12c2:	80 e0       	ldi	r24, 0x00	; 0
    12c4:	90 e0       	ldi	r25, 0x00	; 0
    12c6:	82 d7       	rcall	.+3844   	; 0x21cc <__TEXT_REGION_LENGTH__+0x1cc>
bootAnimation():
/home/wlf-solar/Documents/bsides-leeds-2026-badge/firmware/firmware.ino:1068
  // Stage 1: corrupt scatter — chaos on power-on
  bootScatter(400);
  delay(60);

  // Stage 2: stutter fill — left eye cyan, right eye purple, both fighting to load
  bootStutterFill(0,            LEDS_PER_EYE, 0,  5,  30);
    12c8:	45 e0       	ldi	r20, 0x05	; 5
    12ca:	60 e0       	ldi	r22, 0x00	; 0
    12cc:	80 e0       	ldi	r24, 0x00	; 0
    12ce:	f7 db       	rcall	.-2066   	; 0xabe <bootStutterFill(unsigned char, unsigned char, unsigned char, unsigned char, unsigned char) [clone .constprop.1]>
/home/wlf-solar/Documents/bsides-leeds-2026-badge/firmware/firmware.ino:1069
  bootStutterFill(LEDS_PER_EYE, LEDS_PER_EYE, 20, 0,  30);
    12d0:	40 e0       	ldi	r20, 0x00	; 0
    12d2:	64 e1       	ldi	r22, 0x14	; 20
    12d4:	89 e0       	ldi	r24, 0x09	; 9
    12d6:	f3 db       	rcall	.-2074   	; 0xabe <bootStutterFill(unsigned char, unsigned char, unsigned char, unsigned char, unsigned char) [clone .constprop.1]>
delay():
    12d8:	60 e5       	ldi	r22, 0x50	; 80
    12da:	70 e0       	ldi	r23, 0x00	; 0
    12dc:	80 e0       	ldi	r24, 0x00	; 0
    12de:	90 e0       	ldi	r25, 0x00	; 0
    12e0:	75 d7       	rcall	.+3818   	; 0x21cc <__TEXT_REGION_LENGTH__+0x1cc>
bootAnimation():
/home/wlf-solar/Documents/bsides-leeds-2026-badge/firmware/firmware.ino:1073
  delay(80);

  // Stage 3: flicker drain — left bleeds red, right bleeds green
  bootFlickerDrain(0,            LEDS_PER_EYE, 30, 0,  0);
    12e2:	40 e0       	ldi	r20, 0x00	; 0
    12e4:	6e e1       	ldi	r22, 0x1E	; 30
    12e6:	80 e0       	ldi	r24, 0x00	; 0
    12e8:	54 dc       	rcall	.-1880   	; 0xb92 <bootFlickerDrain(unsigned char, unsigned char, unsigned char, unsigned char, unsigned char) [clone .constprop.0]>
/home/wlf-solar/Documents/bsides-leeds-2026-badge/firmware/firmware.ino:1074
  bootFlickerDrain(LEDS_PER_EYE, LEDS_PER_EYE, 0,  30, 0);
    12ea:	4e e1       	ldi	r20, 0x1E	; 30
    12ec:	60 e0       	ldi	r22, 0x00	; 0
    12ee:	89 e0       	ldi	r24, 0x09	; 9
    12f0:	50 dc       	rcall	.-1888   	; 0xb92 <bootFlickerDrain(unsigned char, unsigned char, unsigned char, unsigned char, unsigned char) [clone .constprop.0]>
delay():
    12f2:	6c e3       	ldi	r22, 0x3C	; 60
    12f4:	70 e0       	ldi	r23, 0x00	; 0
    12f6:	80 e0       	ldi	r24, 0x00	; 0
    12f8:	90 e0       	ldi	r25, 0x00	; 0
    12fa:	68 d7       	rcall	.+3792   	; 0x21cc <__TEXT_REGION_LENGTH__+0x1cc>
    12fc:	ee 24       	eor	r14, r14
    12fe:	e3 94       	inc	r14
    1300:	f1 2c       	mov	r15, r1
    1302:	9a e0       	ldi	r25, 0x0A	; 10
    1304:	59 2e       	mov	r5, r25
    1306:	26 e0       	ldi	r18, 0x06	; 6
    1308:	92 2e       	mov	r9, r18
bootLockIn():
/home/wlf-solar/Documents/bsides-leeds-2026-badge/firmware/firmware.ino:1038
// Stage 4: lock-in with glitch echoes between pulses
void bootLockIn()
{
  for (uint8_t i = 1; i <= 3; ++i) {
    setAllLeds(6 * i, 0, 10 * i, true);
    delay(110 / i);
    130a:	3e e6       	ldi	r19, 0x6E	; 110
    130c:	c3 2e       	mov	r12, r19
    130e:	d1 2c       	mov	r13, r1
/home/wlf-solar/Documents/bsides-leeds-2026-badge/firmware/firmware.ino:1040
    setAllLeds(COLOR_OFF, true);
    delay(80 / i);
    1310:	40 e5       	ldi	r20, 0x50	; 80
    1312:	a4 2e       	mov	r10, r20
    1314:	b1 2c       	mov	r11, r1
/home/wlf-solar/Documents/bsides-leeds-2026-badge/firmware/firmware.ino:1043

    // glitch echo: one rogue LED fires wrong colour then dies
    uint8_t rogue = nextRandomByte() % NUM_LEDS;
    1316:	52 e1       	ldi	r21, 0x12	; 18
    1318:	45 2e       	mov	r4, r21
/home/wlf-solar/Documents/bsides-leeds-2026-badge/firmware/firmware.ino:1037

// Stage 4: lock-in with glitch echoes between pulses
void bootLockIn()
{
  for (uint8_t i = 1; i <= 3; ++i) {
    setAllLeds(6 * i, 0, 10 * i, true);
    131a:	21 e0       	ldi	r18, 0x01	; 1
    131c:	45 2d       	mov	r20, r5
    131e:	60 e0       	ldi	r22, 0x00	; 0
    1320:	89 2d       	mov	r24, r9
    1322:	1a da       	rcall	.-3020   	; 0x758 <setAllLeds(unsigned char, unsigned char, unsigned char, bool)>
/home/wlf-solar/Documents/bsides-leeds-2026-badge/firmware/firmware.ino:1038
    delay(110 / i);
    1324:	c6 01       	movw	r24, r12
    1326:	b7 01       	movw	r22, r14
    1328:	ce d5       	rcall	.+2972   	; 0x1ec6 <__divmodhi4>
    132a:	07 2e       	mov	r0, r23
    132c:	00 0c       	add	r0, r0
    132e:	88 0b       	sbc	r24, r24
    1330:	99 0b       	sbc	r25, r25
    1332:	b3 db       	rcall	.-2202   	; 0xa9a <delay>
/home/wlf-solar/Documents/bsides-leeds-2026-badge/firmware/firmware.ino:1039
    setAllLeds(COLOR_OFF, true);
    1334:	41 e0       	ldi	r20, 0x01	; 1
    1336:	88 2d       	mov	r24, r8
    1338:	b3 01       	movw	r22, r6
    133a:	33 da       	rcall	.-2970   	; 0x7a2 <setAllLeds(RgbColor, bool)>
/home/wlf-solar/Documents/bsides-leeds-2026-badge/firmware/firmware.ino:1040
    delay(80 / i);
    133c:	c5 01       	movw	r24, r10
    133e:	b7 01       	movw	r22, r14
    1340:	c2 d5       	rcall	.+2948   	; 0x1ec6 <__divmodhi4>
    1342:	07 2e       	mov	r0, r23
    1344:	00 0c       	add	r0, r0
    1346:	88 0b       	sbc	r24, r24
    1348:	99 0b       	sbc	r25, r25
    134a:	a7 db       	rcall	.-2226   	; 0xa9a <delay>
/home/wlf-solar/Documents/bsides-leeds-2026-badge/firmware/firmware.ino:1043

    // glitch echo: one rogue LED fires wrong colour then dies
    uint8_t rogue = nextRandomByte() % NUM_LEDS;
    134c:	09 db       	rcall	.-2542   	; 0x960 <nextRandomByte()>
    134e:	64 2d       	mov	r22, r4
    1350:	9a d5       	rcall	.+2868   	; 0x1e86 <__udivmodqi4>
    1352:	09 2f       	mov	r16, r25
/home/wlf-solar/Documents/bsides-leeds-2026-badge/firmware/firmware.ino:1044
    uint8_t which = nextRandomByte() & 0x03;
    1354:	05 db       	rcall	.-2550   	; 0x960 <nextRandomByte()>
    1356:	83 70       	andi	r24, 0x03	; 3
    1358:	10 e0       	ldi	r17, 0x00	; 0
/home/wlf-solar/Documents/bsides-leeds-2026-badge/firmware/firmware.ino:1045
    if (which == 0)      ledStrip.setPixelColor(rogue, 30, 0, 0);
    135a:	20 e0       	ldi	r18, 0x00	; 0
    135c:	40 e0       	ldi	r20, 0x00	; 0
    135e:	6e e1       	ldi	r22, 0x1E	; 30
    1360:	41 f0       	breq	.+16     	; 0x1372 <main+0x296>
/home/wlf-solar/Documents/bsides-leeds-2026-badge/firmware/firmware.ino:1046
    else if (which == 1) ledStrip.setPixelColor(rogue, 0, 20, 0);
    1362:	20 e0       	ldi	r18, 0x00	; 0
    1364:	44 e1       	ldi	r20, 0x14	; 20
    1366:	60 e0       	ldi	r22, 0x00	; 0
    1368:	81 30       	cpi	r24, 0x01	; 1
    136a:	19 f0       	breq	.+6      	; 0x1372 <main+0x296>
/home/wlf-solar/Documents/bsides-leeds-2026-badge/firmware/firmware.ino:1047
    else                 ledStrip.setPixelColor(rogue, 20, 0, 20);
    136c:	24 e1       	ldi	r18, 0x14	; 20
    136e:	40 e0       	ldi	r20, 0x00	; 0
    1370:	64 e1       	ldi	r22, 0x14	; 20
    1372:	c8 01       	movw	r24, r16
    1374:	e5 d6       	rcall	.+3530   	; 0x2140 <__TEXT_REGION_LENGTH__+0x140>
/home/wlf-solar/Documents/bsides-leeds-2026-badge/firmware/firmware.ino:1048
    ledStrip.show();
    1376:	a0 d7       	rcall	.+3904   	; 0x22b8 <__TEXT_REGION_LENGTH__+0x2b8>
delay():
    1378:	67 e3       	ldi	r22, 0x37	; 55
    137a:	70 e0       	ldi	r23, 0x00	; 0
    137c:	80 e0       	ldi	r24, 0x00	; 0
    137e:	90 e0       	ldi	r25, 0x00	; 0
    1380:	25 d7       	rcall	.+3658   	; 0x21cc <__TEXT_REGION_LENGTH__+0x1cc>
bootLockIn():
/home/wlf-solar/Documents/bsides-leeds-2026-badge/firmware/firmware.ino:1050
    delay(55);
    ledStrip.setPixelColor(rogue, 0, 0, 0);
    1382:	20 e0       	ldi	r18, 0x00	; 0
    1384:	40 e0       	ldi	r20, 0x00	; 0
    1386:	60 e0       	ldi	r22, 0x00	; 0
    1388:	c8 01       	movw	r24, r16
    138a:	da d6       	rcall	.+3508   	; 0x2140 <__TEXT_REGION_LENGTH__+0x140>
/home/wlf-solar/Documents/bsides-leeds-2026-badge/firmware/firmware.ino:1051
    ledStrip.show();
    138c:	95 d7       	rcall	.+3882   	; 0x22b8 <__TEXT_REGION_LENGTH__+0x2b8>
delay():
    138e:	6e e1       	ldi	r22, 0x1E	; 30
    1390:	70 e0       	ldi	r23, 0x00	; 0
    1392:	80 e0       	ldi	r24, 0x00	; 0
    1394:	90 e0       	ldi	r25, 0x00	; 0
    1396:	1a d7       	rcall	.+3636   	; 0x21cc <__TEXT_REGION_LENGTH__+0x1cc>
    1398:	e6 e0       	ldi	r30, 0x06	; 6
    139a:	9e 0e       	add	r9, r30
    139c:	fa e0       	ldi	r31, 0x0A	; 10
    139e:	5f 0e       	add	r5, r31
    13a0:	2f ef       	ldi	r18, 0xFF	; 255
    13a2:	e2 1a       	sub	r14, r18
    13a4:	f2 0a       	sbc	r15, r18
bootLockIn():
/home/wlf-solar/Documents/bsides-leeds-2026-badge/firmware/firmware.ino:1036
}

// Stage 4: lock-in with glitch echoes between pulses
void bootLockIn()
{
  for (uint8_t i = 1; i <= 3; ++i) {
    13a6:	38 e1       	ldi	r19, 0x18	; 24
    13a8:	93 12       	cpse	r9, r19
    13aa:	b7 cf       	rjmp	.-146    	; 0x131a <main+0x23e>
/home/wlf-solar/Documents/bsides-leeds-2026-badge/firmware/firmware.ino:1056
    ledStrip.show();
    delay(30);
  }

  // system wins — hold solid blue-white
  setAllLeds(18, 0, 30, true);
    13ac:	21 e0       	ldi	r18, 0x01	; 1
    13ae:	4e e1       	ldi	r20, 0x1E	; 30
    13b0:	60 e0       	ldi	r22, 0x00	; 0
    13b2:	82 e1       	ldi	r24, 0x12	; 18
    13b4:	d1 d9       	rcall	.-3166   	; 0x758 <setAllLeds(unsigned char, unsigned char, unsigned char, bool)>
delay():
    13b6:	68 e5       	ldi	r22, 0x58	; 88
    13b8:	72 e0       	ldi	r23, 0x02	; 2
    13ba:	80 e0       	ldi	r24, 0x00	; 0
    13bc:	90 e0       	ldi	r25, 0x00	; 0
    13be:	06 d7       	rcall	.+3596   	; 0x21cc <__TEXT_REGION_LENGTH__+0x1cc>
bootLockIn():
/home/wlf-solar/Documents/bsides-leeds-2026-badge/firmware/firmware.ino:1058
  delay(600);
  setAllLeds(COLOR_OFF, true);
    13c0:	41 e0       	ldi	r20, 0x01	; 1
    13c2:	88 2d       	mov	r24, r8
    13c4:	b3 01       	movw	r22, r6
    13c6:	ed d9       	rcall	.-3110   	; 0x7a2 <setAllLeds(RgbColor, bool)>
enableRtcPtc():
/home/wlf-solar/Documents/bsides-leeds-2026-badge/firmware/firmware.ino:178
  shouldProcessPtc = false;
}

void enableRtcPtc(uint8_t period = RTC_PERIOD_CYC16_gc)
{
  RTC.PITINTCTRL = RTC_PI_bm;
    13c8:	81 e0       	ldi	r24, 0x01	; 1
    13ca:	80 93 52 01 	sts	0x0152, r24	; 0x800152 <digital_pin_to_bit_mask+0x7f6166>
/home/wlf-solar/Documents/bsides-leeds-2026-badge/firmware/firmware.ino:179
  RTC.PITCTRLA = period | RTC_PITEN_bm;
    13ce:	99 e1       	ldi	r25, 0x19	; 25
    13d0:	90 93 50 01 	sts	0x0150, r25	; 0x800150 <digital_pin_to_bit_mask+0x7f6164>
/home/wlf-solar/Documents/bsides-leeds-2026-badge/firmware/firmware.ino:180
  shouldProcessPtc = true;
    13d4:	80 93 ce 3e 	sts	0x3ECE, r24	; 0x803ece <shouldProcessPtc>
loop():
/home/wlf-solar/Documents/bsides-leeds-2026-badge/firmware/firmware.ino:1282
  bootAnimation();
  enableRtcPtc();

  uint16_t animationStep = 0;
  uint8_t animationMode = 5;
  uint32_t totalIntervalMs = 0;
    13d8:	a1 2c       	mov	r10, r1
    13da:	b1 2c       	mov	r11, r1
    13dc:	65 01       	movw	r12, r10
/home/wlf-solar/Documents/bsides-leeds-2026-badge/firmware/firmware.ino:1281
  ledStrip.begin();
  bootAnimation();
  enableRtcPtc();

  uint16_t animationStep = 0;
  uint8_t animationMode = 5;
    13de:	05 e0       	ldi	r16, 0x05	; 5
    13e0:	20 2e       	mov	r2, r16
/home/wlf-solar/Documents/bsides-leeds-2026-badge/firmware/firmware.ino:1280
{
  ledStrip.begin();
  bootAnimation();
  enableRtcPtc();

  uint16_t animationStep = 0;
    13e2:	51 2c       	mov	r5, r1
    13e4:	41 2c       	mov	r4, r1
showFailure():
/home/wlf-solar/Documents/bsides-leeds-2026-badge/firmware/firmware.ino:340
  delay(50);
}

void showFailure()
{
  flashNotification(COLOR_RED);
    13e6:	60 91 ce 9f 	lds	r22, 0x9FCE	; 0x809fce <__bss_end+0x60de>
    13ea:	6c 8b       	std	Y+20, r22	; 0x14
    13ec:	80 91 cf 9f 	lds	r24, 0x9FCF	; 0x809fcf <__bss_end+0x60df>
    13f0:	8d 8b       	std	Y+21, r24	; 0x15
    13f2:	90 91 d0 9f 	lds	r25, 0x9FD0	; 0x809fd0 <__bss_end+0x60e0>
    13f6:	9e 8b       	std	Y+22, r25	; 0x16
    13f8:	69 8f       	std	Y+25, r22	; 0x19
    13fa:	8a 8f       	std	Y+26, r24	; 0x1a
    13fc:	9b 8f       	std	Y+27, r25	; 0x1b
    13fe:	6c 8f       	std	Y+28, r22	; 0x1c
    1400:	8d 8f       	std	Y+29, r24	; 0x1d
    1402:	9e 8f       	std	Y+30, r25	; 0x1e
runAnimationMode():
/home/wlf-solar/Documents/bsides-leeds-2026-badge/firmware/firmware.ino:1169
  delay(MORSE_END_GAP);
}

int runAnimationMode(uint8_t mode, uint16_t step)
{
  switch (mode) {
    1404:	ef ef       	ldi	r30, 0xFF	; 255
    1406:	e2 0d       	add	r30, r2
    1408:	ec 30       	cpi	r30, 0x0C	; 12
    140a:	28 f5       	brcc	.+74     	; 0x1456 <main+0x37a>
    140c:	f0 e0       	ldi	r31, 0x00	; 0
    140e:	e6 5f       	subi	r30, 0xF6	; 246
    1410:	f5 4f       	sbci	r31, 0xF5	; 245
    1412:	09 94       	ijmp
    1414:	2b c0       	rjmp	.+86     	; 0x146c <main+0x390>
    1416:	4f c0       	rjmp	.+158    	; 0x14b6 <main+0x3da>
    1418:	53 c0       	rjmp	.+166    	; 0x14c0 <main+0x3e4>
    141a:	59 c0       	rjmp	.+178    	; 0x14ce <main+0x3f2>
    141c:	5b c0       	rjmp	.+182    	; 0x14d4 <main+0x3f8>
    141e:	8c c0       	rjmp	.+280    	; 0x1538 <main+0x45c>
    1420:	a6 c0       	rjmp	.+332    	; 0x156e <main+0x492>
    1422:	05 c1       	rjmp	.+522    	; 0x162e <main+0x552>
    1424:	1c c1       	rjmp	.+568    	; 0x165e <main+0x582>
    1426:	4c c1       	rjmp	.+664    	; 0x16c0 <main+0x5e4>
    1428:	96 c1       	rjmp	.+812    	; 0x1756 <main+0x67a>
    142a:	d1 c1       	rjmp	.+930    	; 0x17ce <main+0x6f2>
ptc_get_last_node():
/home/wlf-solar/.arduino15/packages/megaTinyCore/hardware/megaavr/2.6.11/libraries/PTC/src/ptc.c:1050
  }

  cap_sensor_t *node = firstNode;
  while (1) {
    cap_sensor_t *nextNode = node->nextNode;
    if (nextNode == NULL) {
    142c:	da 01       	movw	r26, r20
/home/wlf-solar/.arduino15/packages/megaTinyCore/hardware/megaavr/2.6.11/libraries/PTC/src/ptc.c:1049
    return NULL;
  }

  cap_sensor_t *node = firstNode;
  while (1) {
    cap_sensor_t *nextNode = node->nextNode;
    142e:	4d 91       	ld	r20, X+
    1430:	5c 91       	ld	r21, X
    1432:	11 97       	sbiw	r26, 0x01	; 1
/home/wlf-solar/.arduino15/packages/megaTinyCore/hardware/megaavr/2.6.11/libraries/PTC/src/ptc.c:1050
    if (nextNode == NULL) {
    1434:	41 15       	cp	r20, r1
    1436:	51 05       	cpc	r21, r1
    1438:	c9 f7       	brne	.-14     	; 0x142c <main+0x350>
ptc_append_node():
/home/wlf-solar/.arduino15/packages/megaTinyCore/hardware/megaavr/2.6.11/libraries/PTC/src/ptc.c:1066

  cap_sensor_t *lastNode = ptc_get_last_node();
  if (lastNode == NULL) {
    firstNode = pNewNode;
    pNewNode->id = 0;
  } else if (lastNode != pNewNode) {  // Make sure we don't create an endless loop on accident
    143a:	ea 17       	cp	r30, r26
    143c:	fb 07       	cpc	r31, r27
    143e:	09 f4       	brne	.+2      	; 0x1442 <main+0x366>
    1440:	ff cf       	rjmp	.-2      	; 0x1440 <main+0x364>
/home/wlf-solar/.arduino15/packages/megaTinyCore/hardware/megaavr/2.6.11/libraries/PTC/src/ptc.c:1067
    lastNode->nextNode = pNewNode;
    1442:	ed 93       	st	X+, r30
    1444:	fc 93       	st	X, r31
    1446:	11 97       	sbiw	r26, 0x01	; 1
/home/wlf-solar/.arduino15/packages/megaTinyCore/hardware/megaavr/2.6.11/libraries/PTC/src/ptc.c:1068
    pNewNode->id = lastNode->id + 1;
    1448:	14 96       	adiw	r26, 0x04	; 4
    144a:	4c 91       	ld	r20, X
    144c:	4f 5f       	subi	r20, 0xFF	; 255
    144e:	44 83       	std	Z+4, r20	; 0x04
    1450:	c3 ce       	rjmp	.-634    	; 0x11d8 <main+0xfc>
bootScatter():
/home/wlf-solar/Documents/bsides-leeds-2026-badge/firmware/firmware.ino:963
        uint8_t b = nextRandomByte() & 0x0F;
        // bias toward cyan/purple — v01d palette bleeding through noise
        uint8_t which = nextRandomByte() & 0x03;
        if (which == 0)      ledStrip.setPixelColor(i, 0, b, b * 2);
        else if (which == 1) ledStrip.setPixelColor(i, b, 0, b * 2);
        else                 ledStrip.setPixelColor(i, 0, 0, 0);
    1452:	60 e0       	ldi	r22, 0x00	; 0
    1454:	19 cf       	rjmp	.-462    	; 0x1288 <main+0x1ac>
runAnimationMode():
/home/wlf-solar/Documents/bsides-leeds-2026-badge/firmware/firmware.ino:1171

int runAnimationMode(uint8_t mode, uint16_t step)
{
  switch (mode) {
    case 0:
      return knightRider(step, 0, 10, 0);
    1456:	4a e0       	ldi	r20, 0x0A	; 10
    1458:	60 e0       	ldi	r22, 0x00	; 0
    145a:	c2 01       	movw	r24, r4
    145c:	cf d9       	rcall	.-3170   	; 0x7fc <knightRider(unsigned int, unsigned char, unsigned char, unsigned char) [clone .constprop.6]>
    145e:	08 2f       	mov	r16, r24
    1460:	10 e0       	ldi	r17, 0x00	; 0
    1462:	21 2c       	mov	r2, r1
loop():
/home/wlf-solar/Documents/bsides-leeds-2026-badge/firmware/firmware.ino:1287
  uint32_t totalIntervalMs = 0;

  while (true) {
    int intervalMs = runAnimationMode(animationMode, animationStep);

    if (intervalMs == 0) {
    1464:	01 15       	cp	r16, r1
    1466:	11 05       	cpc	r17, r1
    1468:	b9 f4       	brne	.+46     	; 0x1498 <main+0x3bc>
    146a:	ad c1       	rjmp	.+858    	; 0x17c6 <main+0x6ea>
breath():
/home/wlf-solar/Documents/bsides-leeds-2026-badge/firmware/firmware.ino:773
  return ret;
}

uint8_t breath(uint16_t step, uint8_t r, uint8_t g, uint8_t b )
{
  step = step % 60;
    146c:	2c e3       	ldi	r18, 0x3C	; 60
    146e:	30 e0       	ldi	r19, 0x00	; 0
    1470:	c2 01       	movw	r24, r4
    1472:	b9 01       	movw	r22, r18
    1474:	14 d5       	rcall	.+2600   	; 0x1e9e <__udivmodhi4>
    1476:	8c 01       	movw	r16, r24
/home/wlf-solar/Documents/bsides-leeds-2026-badge/firmware/firmware.ino:774
  if (step > 30)
    1478:	8f 31       	cpi	r24, 0x1F	; 31
    147a:	91 05       	cpc	r25, r1
    147c:	20 f0       	brcs	.+8      	; 0x1486 <main+0x3aa>
/home/wlf-solar/Documents/bsides-leeds-2026-badge/firmware/firmware.ino:776
  {
    step = 60 - step;
    147e:	d9 01       	movw	r26, r18
    1480:	a8 1b       	sub	r26, r24
    1482:	b9 0b       	sbc	r27, r25
    1484:	8d 01       	movw	r16, r26
/home/wlf-solar/Documents/bsides-leeds-2026-badge/firmware/firmware.ino:778
  }
  setAllLeds(r * step, g * step, b * step, true);
    1486:	21 e0       	ldi	r18, 0x01	; 1
    1488:	40 e0       	ldi	r20, 0x00	; 0
    148a:	60 e0       	ldi	r22, 0x00	; 0
    148c:	80 2f       	mov	r24, r16
    148e:	64 d9       	rcall	.-3384   	; 0x758 <setAllLeds(unsigned char, unsigned char, unsigned char, bool)>
/home/wlf-solar/Documents/bsides-leeds-2026-badge/firmware/firmware.ino:779
  if (step == 0 )
    1490:	01 2b       	or	r16, r17
    1492:	79 f4       	brne	.+30     	; 0x14b2 <main+0x3d6>
main():
/home/wlf-solar/Documents/bsides-leeds-2026-badge/firmware/firmware.ino:781
  {
    return 200;
    1494:	08 ec       	ldi	r16, 0xC8	; 200
runAnimationMode():
/home/wlf-solar/Documents/bsides-leeds-2026-badge/firmware/firmware.ino:1173
{
  switch (mode) {
    case 0:
      return knightRider(step, 0, 10, 0);
    case 1:
      return breath(step, 1, 0 , 0);
    1496:	10 e0       	ldi	r17, 0x00	; 0
loop():
/home/wlf-solar/Documents/bsides-leeds-2026-badge/firmware/firmware.ino:1296
    if (intervalMs < 0) {
      animationMode = 0;
      continue;
    }

    ++animationStep;
    1498:	ef ef       	ldi	r30, 0xFF	; 255
    149a:	4e 1a       	sub	r4, r30
    149c:	5e 0a       	sbc	r5, r30
/home/wlf-solar/Documents/bsides-leeds-2026-badge/firmware/firmware.ino:1297
    totalIntervalMs += intervalMs;
    149e:	c8 01       	movw	r24, r16
    14a0:	01 2e       	mov	r0, r17
    14a2:	00 0c       	add	r0, r0
    14a4:	aa 0b       	sbc	r26, r26
    14a6:	bb 0b       	sbc	r27, r27
    14a8:	a8 0e       	add	r10, r24
    14aa:	b9 1e       	adc	r11, r25
    14ac:	ca 1e       	adc	r12, r26
    14ae:	db 1e       	adc	r13, r27
    14b0:	43 c2       	rjmp	.+1158   	; 0x1938 <main+0x85c>
main():
/home/wlf-solar/Documents/bsides-leeds-2026-badge/firmware/firmware.ino:783
  setAllLeds(r * step, g * step, b * step, true);
  if (step == 0 )
  {
    return 200;
  }
  return 30;
    14b2:	0e e1       	ldi	r16, 0x1E	; 30
    14b4:	f0 cf       	rjmp	.-32     	; 0x1496 <main+0x3ba>
runAnimationMode():
/home/wlf-solar/Documents/bsides-leeds-2026-badge/firmware/firmware.ino:1175
    case 0:
      return knightRider(step, 0, 10, 0);
    case 1:
      return breath(step, 1, 0 , 0);
    case 2:
      return loopingEyes(step, 0, 0, 10);
    14b6:	4a e0       	ldi	r20, 0x0A	; 10
    14b8:	60 e0       	ldi	r22, 0x00	; 0
/home/wlf-solar/Documents/bsides-leeds-2026-badge/firmware/firmware.ino:1179
    case 3:
      return knightRider(step, 10, 0, 0);
    case 4:
      return loopingEyes(step, 10, 0, 0);
    14ba:	c2 01       	movw	r24, r4
    14bc:	78 d9       	rcall	.-3344   	; 0x7ae <loopingEyes(unsigned int, unsigned char, unsigned char, unsigned char) [clone .constprop.10]>
    14be:	04 c0       	rjmp	.+8      	; 0x14c8 <main+0x3ec>
/home/wlf-solar/Documents/bsides-leeds-2026-badge/firmware/firmware.ino:1177
    case 1:
      return breath(step, 1, 0 , 0);
    case 2:
      return loopingEyes(step, 0, 0, 10);
    case 3:
      return knightRider(step, 10, 0, 0);
    14c0:	40 e0       	ldi	r20, 0x00	; 0
    14c2:	6a e0       	ldi	r22, 0x0A	; 10
    14c4:	c2 01       	movw	r24, r4
    14c6:	9a d9       	rcall	.-3276   	; 0x7fc <knightRider(unsigned int, unsigned char, unsigned char, unsigned char) [clone .constprop.6]>
/home/wlf-solar/Documents/bsides-leeds-2026-badge/firmware/firmware.ino:1179
    case 4:
      return loopingEyes(step, 10, 0, 0);
    14c8:	08 2f       	mov	r16, r24
    14ca:	10 e0       	ldi	r17, 0x00	; 0
    14cc:	cb cf       	rjmp	.-106    	; 0x1464 <main+0x388>
    14ce:	40 e0       	ldi	r20, 0x00	; 0
    14d0:	6a e0       	ldi	r22, 0x0A	; 10
    14d2:	f3 cf       	rjmp	.-26     	; 0x14ba <main+0x3de>
/home/wlf-solar/Documents/bsides-leeds-2026-badge/firmware/firmware.ino:1181
    case 5:
      if ((state & B00000111) != 0) { return 0; };
    14d4:	80 91 d0 3e 	lds	r24, 0x3ED0	; 0x803ed0 <state>
    14d8:	87 70       	andi	r24, 0x07	; 7
    14da:	09 f0       	breq	.+2      	; 0x14de <main+0x402>
    14dc:	74 c1       	rjmp	.+744    	; 0x17c6 <main+0x6ea>
devsecopsMode():
/home/wlf-solar/Documents/bsides-leeds-2026-badge/firmware/firmware.ino:707
{
  uint8_t r = 0;
  uint8_t g = 0;
  uint8_t b = 0;

 step = step % 90;
    14de:	c2 01       	movw	r24, r4
    14e0:	6a e5       	ldi	r22, 0x5A	; 90
    14e2:	70 e0       	ldi	r23, 0x00	; 0
    14e4:	dc d4       	rcall	.+2488   	; 0x1e9e <__udivmodhi4>
main():
/home/wlf-solar/Documents/bsides-leeds-2026-badge/firmware/firmware.ino:705

uint8_t devsecopsMode(uint16_t step)
{
  uint8_t r = 0;
  uint8_t g = 0;
  uint8_t b = 0;
    14e6:	20 e0       	ldi	r18, 0x00	; 0
/home/wlf-solar/Documents/bsides-leeds-2026-badge/firmware/firmware.ino:704
};

uint8_t devsecopsMode(uint16_t step)
{
  uint8_t r = 0;
  uint8_t g = 0;
    14e8:	40 e0       	ldi	r20, 0x00	; 0
/home/wlf-solar/Documents/bsides-leeds-2026-badge/firmware/firmware.ino:711

 step = step % 90;
  
  if (step < 18)
  {
    r = 30; 
    14ea:	3e e1       	ldi	r19, 0x1E	; 30
devsecopsMode():
/home/wlf-solar/Documents/bsides-leeds-2026-badge/firmware/firmware.ino:709
  uint8_t g = 0;
  uint8_t b = 0;

 step = step % 90;
  
  if (step < 18)
    14ec:	82 31       	cpi	r24, 0x12	; 18
    14ee:	91 05       	cpc	r25, r1
    14f0:	a8 f0       	brcs	.+42     	; 0x151c <main+0x440>
/home/wlf-solar/Documents/bsides-leeds-2026-badge/firmware/firmware.ino:713
  {
    r = 30; 
  }
  else if (step < 36)
    14f2:	84 32       	cpi	r24, 0x24	; 36
    14f4:	91 05       	cpc	r25, r1
    14f6:	78 f0       	brcs	.+30     	; 0x1516 <main+0x43a>
main():
/home/wlf-solar/Documents/bsides-leeds-2026-badge/firmware/firmware.ino:705

uint8_t devsecopsMode(uint16_t step)
{
  uint8_t r = 0;
  uint8_t g = 0;
  uint8_t b = 0;
    14f8:	20 e0       	ldi	r18, 0x00	; 0
/home/wlf-solar/Documents/bsides-leeds-2026-badge/firmware/firmware.ino:720
    g = 8;
  }
  else if (step < 54)
  {
    r = 20;
  g = 8;
    14fa:	48 e0       	ldi	r20, 0x08	; 8
/home/wlf-solar/Documents/bsides-leeds-2026-badge/firmware/firmware.ino:719
  {
    g = 8;
  }
  else if (step < 54)
  {
    r = 20;
    14fc:	34 e1       	ldi	r19, 0x14	; 20
devsecopsMode():
/home/wlf-solar/Documents/bsides-leeds-2026-badge/firmware/firmware.ino:717
  }
  else if (step < 36)
  {
    g = 8;
  }
  else if (step < 54)
    14fe:	86 33       	cpi	r24, 0x36	; 54
    1500:	91 05       	cpc	r25, r1
    1502:	60 f0       	brcs	.+24     	; 0x151c <main+0x440>
main():
/home/wlf-solar/Documents/bsides-leeds-2026-badge/firmware/firmware.ino:725
  g = 8;
  }
  else if (step < 72)
  {
    r = 6;
    b = 30;
    1504:	2e e1       	ldi	r18, 0x1E	; 30
/home/wlf-solar/Documents/bsides-leeds-2026-badge/firmware/firmware.ino:704
};

uint8_t devsecopsMode(uint16_t step)
{
  uint8_t r = 0;
  uint8_t g = 0;
    1506:	40 e0       	ldi	r20, 0x00	; 0
/home/wlf-solar/Documents/bsides-leeds-2026-badge/firmware/firmware.ino:724
    r = 20;
  g = 8;
  }
  else if (step < 72)
  {
    r = 6;
    1508:	36 e0       	ldi	r19, 0x06	; 6
devsecopsMode():
/home/wlf-solar/Documents/bsides-leeds-2026-badge/firmware/firmware.ino:722
  else if (step < 54)
  {
    r = 20;
  g = 8;
  }
  else if (step < 72)
    150a:	88 34       	cpi	r24, 0x48	; 72
    150c:	91 05       	cpc	r25, r1
    150e:	30 f0       	brcs	.+12     	; 0x151c <main+0x440>
main():
/home/wlf-solar/Documents/bsides-leeds-2026-badge/firmware/firmware.ino:729
    r = 6;
    b = 30;
  }
    else if (step < 90)
  {
    g = 5;
    1510:	42 2d       	mov	r20, r2
/home/wlf-solar/Documents/bsides-leeds-2026-badge/firmware/firmware.ino:730
    b = 30;
    1512:	2e e1       	ldi	r18, 0x1E	; 30
    1514:	02 c0       	rjmp	.+4      	; 0x151a <main+0x43e>
/home/wlf-solar/Documents/bsides-leeds-2026-badge/firmware/firmware.ino:705

uint8_t devsecopsMode(uint16_t step)
{
  uint8_t r = 0;
  uint8_t g = 0;
  uint8_t b = 0;
    1516:	20 e0       	ldi	r18, 0x00	; 0
/home/wlf-solar/Documents/bsides-leeds-2026-badge/firmware/firmware.ino:715
  {
    r = 30; 
  }
  else if (step < 36)
  {
    g = 8;
    1518:	48 e0       	ldi	r20, 0x08	; 8
/home/wlf-solar/Documents/bsides-leeds-2026-badge/firmware/firmware.ino:703
   7, 8, 0, 1, 2, 3, 4, 5, 6, 10, 9, 17, 16, 15, 14, 13, 12, 11,
};

uint8_t devsecopsMode(uint16_t step)
{
  uint8_t r = 0;
    151a:	30 e0       	ldi	r19, 0x00	; 0
devsecopsMode():
/home/wlf-solar/Documents/bsides-leeds-2026-badge/firmware/firmware.ino:732
    else if (step < 90)
  {
    g = 5;
    b = 30;
  }
  uint8_t pos = step % 18;
    151c:	62 e1       	ldi	r22, 0x12	; 18
    151e:	70 e0       	ldi	r23, 0x00	; 0
    1520:	be d4       	rcall	.+2428   	; 0x1e9e <__udivmodhi4>
/home/wlf-solar/Documents/bsides-leeds-2026-badge/firmware/firmware.ino:733
  ledStrip.setPixelColor(pgm_read_byte(&INFINITI_LEDS[pos]), r,g,b);
    1522:	8f 54       	subi	r24, 0x4F	; 79
    1524:	9f 4f       	sbci	r25, 0xFF	; 255
    1526:	fc 01       	movw	r30, r24
    1528:	84 91       	lpm	r24, Z
    152a:	63 2f       	mov	r22, r19
    152c:	90 e0       	ldi	r25, 0x00	; 0
    152e:	08 d6       	rcall	.+3088   	; 0x2140 <__TEXT_REGION_LENGTH__+0x140>
/home/wlf-solar/Documents/bsides-leeds-2026-badge/firmware/firmware.ino:734
  ledStrip.show();
    1530:	c3 d6       	rcall	.+3462   	; 0x22b8 <__TEXT_REGION_LENGTH__+0x2b8>
main():
/home/wlf-solar/Documents/bsides-leeds-2026-badge/firmware/firmware.ino:1182
      return knightRider(step, 10, 0, 0);
    case 4:
      return loopingEyes(step, 10, 0, 0);
    case 5:
      if ((state & B00000111) != 0) { return 0; };
      return devsecopsMode(step);
    1532:	02 e3       	ldi	r16, 0x32	; 50
    1534:	10 e0       	ldi	r17, 0x00	; 0
    1536:	b0 cf       	rjmp	.-160    	; 0x1498 <main+0x3bc>
runAnimationMode():
/home/wlf-solar/Documents/bsides-leeds-2026-badge/firmware/firmware.ino:1184
    case 6:
      if ((state & B00000010) != 0) { return 0; };
    1538:	80 91 d0 3e 	lds	r24, 0x3ED0	; 0x803ed0 <state>
    153c:	81 fd       	sbrc	r24, 1
    153e:	43 c1       	rjmp	.+646    	; 0x17c6 <main+0x6ea>
nuclearMode():
/home/wlf-solar/Documents/bsides-leeds-2026-badge/firmware/firmware.ino:740
  return 50;
}

uint8_t nuclearMode(uint16_t step, uint8_t spacing, uint8_t r, uint8_t g, uint8_t b, uint8_t r2, uint8_t g2, uint8_t b2, uint8_t ret )
{
  uint8_t initial = step % 3;
    1540:	c2 01       	movw	r24, r4
    1542:	63 e0       	ldi	r22, 0x03	; 3
    1544:	70 e0       	ldi	r23, 0x00	; 0
    1546:	ab d4       	rcall	.+2390   	; 0x1e9e <__udivmodhi4>
    1548:	18 2f       	mov	r17, r24
/home/wlf-solar/Documents/bsides-leeds-2026-badge/firmware/firmware.ino:741
  setAllLeds(r,g,b);
    154a:	20 e0       	ldi	r18, 0x00	; 0
    154c:	40 e0       	ldi	r20, 0x00	; 0
    154e:	60 e0       	ldi	r22, 0x00	; 0
    1550:	80 e0       	ldi	r24, 0x00	; 0
    1552:	02 d9       	rcall	.-3580   	; 0x758 <setAllLeds(unsigned char, unsigned char, unsigned char, bool)>
/home/wlf-solar/Documents/bsides-leeds-2026-badge/firmware/firmware.ino:744
  for (uint8_t i = 0 + initial; i < 18; i = i + spacing)
  {
    ledStrip.setPixelColor(i, r2, g2, b2);
    1554:	20 e0       	ldi	r18, 0x00	; 0
    1556:	44 e1       	ldi	r20, 0x14	; 20
    1558:	6a e0       	ldi	r22, 0x0A	; 10
    155a:	81 2f       	mov	r24, r17
    155c:	90 e0       	ldi	r25, 0x00	; 0
    155e:	f0 d5       	rcall	.+3040   	; 0x2140 <__TEXT_REGION_LENGTH__+0x140>
/home/wlf-solar/Documents/bsides-leeds-2026-badge/firmware/firmware.ino:742

uint8_t nuclearMode(uint16_t step, uint8_t spacing, uint8_t r, uint8_t g, uint8_t b, uint8_t r2, uint8_t g2, uint8_t b2, uint8_t ret )
{
  uint8_t initial = step % 3;
  setAllLeds(r,g,b);
  for (uint8_t i = 0 + initial; i < 18; i = i + spacing)
    1560:	1d 5f       	subi	r17, 0xFD	; 253
    1562:	12 31       	cpi	r17, 0x12	; 18
    1564:	b8 f3       	brcs	.-18     	; 0x1554 <main+0x478>
/home/wlf-solar/Documents/bsides-leeds-2026-badge/firmware/firmware.ino:746
  {
    ledStrip.setPixelColor(i, r2, g2, b2);
  }
  ledStrip.show();
    1566:	a8 d6       	rcall	.+3408   	; 0x22b8 <__TEXT_REGION_LENGTH__+0x2b8>
main():
/home/wlf-solar/Documents/bsides-leeds-2026-badge/firmware/firmware.ino:1185
    case 5:
      if ((state & B00000111) != 0) { return 0; };
      return devsecopsMode(step);
    case 6:
      if ((state & B00000010) != 0) { return 0; };
      return nuclearMode(step, 3, 0, 0, 0, 10, 20, 0, 150 );
    1568:	06 e9       	ldi	r16, 0x96	; 150
    156a:	10 e0       	ldi	r17, 0x00	; 0
    156c:	95 cf       	rjmp	.-214    	; 0x1498 <main+0x3bc>
runAnimationMode():
/home/wlf-solar/Documents/bsides-leeds-2026-badge/firmware/firmware.ino:1187
    case 7:
      if ((state & B00000100) != 0) { return 0; };
    156e:	80 91 d0 3e 	lds	r24, 0x3ED0	; 0x803ed0 <state>
    1572:	82 fd       	sbrc	r24, 2
    1574:	28 c1       	rjmp	.+592    	; 0x17c6 <main+0x6ea>
yorkRose():
/home/wlf-solar/Documents/bsides-leeds-2026-badge/firmware/firmware.ino:904
// Petal pattern: centre bright white, 2 adjacent petals mid-white,
// 2 outer petals dim white — remaining 4 LEDs deep red background.
// The whole pattern rotates one position per step.
uint8_t yorkRose(uint16_t step)
{
  const uint8_t rot = step % 9;
    1576:	c2 01       	movw	r24, r4
    1578:	69 e0       	ldi	r22, 0x09	; 9
    157a:	70 e0       	ldi	r23, 0x00	; 0
    157c:	90 d4       	rcall	.+2336   	; 0x1e9e <__udivmodhi4>
    157e:	8c 01       	movw	r16, r24
/home/wlf-solar/Documents/bsides-leeds-2026-badge/firmware/firmware.ino:905
  setAllLeds(20, 0, 0); // deep red background
    1580:	20 e0       	ldi	r18, 0x00	; 0
    1582:	40 e0       	ldi	r20, 0x00	; 0
    1584:	60 e0       	ldi	r22, 0x00	; 0
    1586:	84 e1       	ldi	r24, 0x14	; 20
    1588:	e7 d8       	rcall	.-3634   	; 0x758 <setAllLeds(unsigned char, unsigned char, unsigned char, bool)>
/home/wlf-solar/Documents/bsides-leeds-2026-badge/firmware/firmware.ino:913
  const uint8_t PCTR = 30;
  const uint8_t PINR = 18;
  const uint8_t POUTR = 8;

  // offsets relative to rotation centre: 0=tip, +-1=inner, +-2=outer
  const int8_t offsets[5] = { 0, 1, -1, 2, -2 };
    158a:	85 e0       	ldi	r24, 0x05	; 5
    158c:	e4 ea       	ldi	r30, 0xA4	; 164
    158e:	ff e9       	ldi	r31, 0x9F	; 159
    1590:	de 01       	movw	r26, r28
    1592:	1b 96       	adiw	r26, 0x0b	; 11
    1594:	01 90       	ld	r0, Z+
    1596:	0d 92       	st	X+, r0
    1598:	8a 95       	dec	r24
    159a:	e1 f7       	brne	.-8      	; 0x1594 <main+0x4b8>
/home/wlf-solar/Documents/bsides-leeds-2026-badge/firmware/firmware.ino:914
  const uint8_t bright[5]  = { PCTR, PINR, PINR, POUTR, POUTR };
    159c:	85 e0       	ldi	r24, 0x05	; 5
    159e:	e9 ea       	ldi	r30, 0xA9	; 169
    15a0:	ff e9       	ldi	r31, 0x9F	; 159
    15a2:	de 01       	movw	r26, r28
    15a4:	11 96       	adiw	r26, 0x01	; 1
    15a6:	01 90       	ld	r0, Z+
    15a8:	0d 92       	st	X+, r0
    15aa:	8a 95       	dec	r24
    15ac:	e1 f7       	brne	.-8      	; 0x15a6 <main+0x4ca>
    15ae:	7e 01       	movw	r14, r28
    15b0:	fb e0       	ldi	r31, 0x0B	; 11
    15b2:	ef 0e       	add	r14, r31
    15b4:	f1 1c       	adc	r15, r1
    15b6:	9e 01       	movw	r18, r28
    15b8:	2f 5f       	subi	r18, 0xFF	; 255
    15ba:	3f 4f       	sbci	r19, 0xFF	; 255
    15bc:	2a 8b       	std	Y+18, r18	; 0x12
    15be:	3b 8b       	std	Y+19, r19	; 0x13
    15c0:	ce 01       	movw	r24, r28
    15c2:	40 96       	adiw	r24, 0x10	; 16
    15c4:	88 8b       	std	Y+16, r24	; 0x10
    15c6:	99 8b       	std	Y+17, r25	; 0x11
/home/wlf-solar/Documents/bsides-leeds-2026-badge/firmware/firmware.ino:917

  for (uint8_t p = 0; p < 5; ++p) {
    uint8_t posL = (rot + 9 + offsets[p]) % 9;
    15c8:	d8 01       	movw	r26, r16
    15ca:	19 96       	adiw	r26, 0x09	; 9
    15cc:	af 8b       	std	Y+23, r26	; 0x17
    15ce:	b8 8f       	std	Y+24, r27	; 0x18
    15d0:	f7 01       	movw	r30, r14
    15d2:	81 91       	ld	r24, Z+
    15d4:	7f 01       	movw	r14, r30
/home/wlf-solar/Documents/bsides-leeds-2026-badge/firmware/firmware.ino:919
    uint8_t posR = (rot + 9 + offsets[p]) % 9;
    ledStrip.setPixelColor(pgm_read_byte(&SPIN_LEDS_LEFT[posL]),  bright[p], bright[p], bright[p]);
    15d6:	aa 89       	ldd	r26, Y+18	; 0x12
    15d8:	bb 89       	ldd	r27, Y+19	; 0x13
    15da:	9d 90       	ld	r9, X+
    15dc:	aa 8b       	std	Y+18, r26	; 0x12
    15de:	bb 8b       	std	Y+19, r27	; 0x13
/home/wlf-solar/Documents/bsides-leeds-2026-badge/firmware/firmware.ino:917
  // offsets relative to rotation centre: 0=tip, +-1=inner, +-2=outer
  const int8_t offsets[5] = { 0, 1, -1, 2, -2 };
  const uint8_t bright[5]  = { PCTR, PINR, PINR, POUTR, POUTR };

  for (uint8_t p = 0; p < 5; ++p) {
    uint8_t posL = (rot + 9 + offsets[p]) % 9;
    15e0:	ef 89       	ldd	r30, Y+23	; 0x17
    15e2:	f8 8d       	ldd	r31, Y+24	; 0x18
    15e4:	e8 0f       	add	r30, r24
    15e6:	f1 1d       	adc	r31, r1
    15e8:	87 fd       	sbrc	r24, 7
    15ea:	fa 95       	dec	r31
    15ec:	cf 01       	movw	r24, r30
    15ee:	69 e0       	ldi	r22, 0x09	; 9
    15f0:	70 e0       	ldi	r23, 0x00	; 0
    15f2:	69 d4       	rcall	.+2258   	; 0x1ec6 <__divmodhi4>
    15f4:	8c 01       	movw	r16, r24
    15f6:	11 27       	eor	r17, r17
/home/wlf-solar/Documents/bsides-leeds-2026-badge/firmware/firmware.ino:919
    uint8_t posR = (rot + 9 + offsets[p]) % 9;
    ledStrip.setPixelColor(pgm_read_byte(&SPIN_LEDS_LEFT[posL]),  bright[p], bright[p], bright[p]);
    15f8:	f8 01       	movw	r30, r16
    15fa:	e9 59       	subi	r30, 0x99	; 153
    15fc:	ff 4f       	sbci	r31, 0xFF	; 255
    15fe:	84 91       	lpm	r24, Z
    1600:	29 2d       	mov	r18, r9
    1602:	49 2d       	mov	r20, r9
    1604:	69 2d       	mov	r22, r9
    1606:	90 e0       	ldi	r25, 0x00	; 0
    1608:	9b d5       	rcall	.+2870   	; 0x2140 <__TEXT_REGION_LENGTH__+0x140>
/home/wlf-solar/Documents/bsides-leeds-2026-badge/firmware/firmware.ino:920
    ledStrip.setPixelColor(pgm_read_byte(&SPIN_LEDS_RIGHT[posR]), bright[p], bright[p], bright[p]);
    160a:	f8 01       	movw	r30, r16
    160c:	e2 5a       	subi	r30, 0xA2	; 162
    160e:	ff 4f       	sbci	r31, 0xFF	; 255
    1610:	84 91       	lpm	r24, Z
    1612:	29 2d       	mov	r18, r9
    1614:	49 2d       	mov	r20, r9
    1616:	69 2d       	mov	r22, r9
    1618:	90 e0       	ldi	r25, 0x00	; 0
    161a:	92 d5       	rcall	.+2852   	; 0x2140 <__TEXT_REGION_LENGTH__+0x140>
/home/wlf-solar/Documents/bsides-leeds-2026-badge/firmware/firmware.ino:916

  // offsets relative to rotation centre: 0=tip, +-1=inner, +-2=outer
  const int8_t offsets[5] = { 0, 1, -1, 2, -2 };
  const uint8_t bright[5]  = { PCTR, PINR, PINR, POUTR, POUTR };

  for (uint8_t p = 0; p < 5; ++p) {
    161c:	28 89       	ldd	r18, Y+16	; 0x10
    161e:	39 89       	ldd	r19, Y+17	; 0x11
    1620:	e2 16       	cp	r14, r18
    1622:	f3 06       	cpc	r15, r19
    1624:	a9 f6       	brne	.-86     	; 0x15d0 <main+0x4f4>
/home/wlf-solar/Documents/bsides-leeds-2026-badge/firmware/firmware.ino:923
    uint8_t posR = (rot + 9 + offsets[p]) % 9;
    ledStrip.setPixelColor(pgm_read_byte(&SPIN_LEDS_LEFT[posL]),  bright[p], bright[p], bright[p]);
    ledStrip.setPixelColor(pgm_read_byte(&SPIN_LEDS_RIGHT[posR]), bright[p], bright[p], bright[p]);
  }

  ledStrip.show();
    1626:	48 d6       	rcall	.+3216   	; 0x22b8 <__TEXT_REGION_LENGTH__+0x2b8>
main():
/home/wlf-solar/Documents/bsides-leeds-2026-badge/firmware/firmware.ino:1188
    case 6:
      if ((state & B00000010) != 0) { return 0; };
      return nuclearMode(step, 3, 0, 0, 0, 10, 20, 0, 150 );
    case 7:
      if ((state & B00000100) != 0) { return 0; };
      return yorkRose(step);
    1628:	08 e7       	ldi	r16, 0x78	; 120
    162a:	10 e0       	ldi	r17, 0x00	; 0
    162c:	35 cf       	rjmp	.-406    	; 0x1498 <main+0x3bc>
runAnimationMode():
/home/wlf-solar/Documents/bsides-leeds-2026-badge/firmware/firmware.ino:1190
    case 8:
      if ((state & B00000001) != 0) { return 0; };
    162e:	80 91 d0 3e 	lds	r24, 0x3ED0	; 0x803ed0 <state>
    1632:	80 fd       	sbrc	r24, 0
    1634:	c8 c0       	rjmp	.+400    	; 0x17c6 <main+0x6ea>
policeMode():
/home/wlf-solar/Documents/bsides-leeds-2026-badge/firmware/firmware.ino:687
  return 100;
}

uint8_t policeMode(uint16_t step)
{
  uint8_t initial = step % 2;
    1636:	14 2d       	mov	r17, r4
    1638:	11 70       	andi	r17, 0x01	; 1
/home/wlf-solar/Documents/bsides-leeds-2026-badge/firmware/firmware.ino:688
  setAllLeds(10,0,0);
    163a:	20 e0       	ldi	r18, 0x00	; 0
    163c:	40 e0       	ldi	r20, 0x00	; 0
    163e:	60 e0       	ldi	r22, 0x00	; 0
    1640:	8a e0       	ldi	r24, 0x0A	; 10
    1642:	8a d8       	rcall	.-3820   	; 0x758 <setAllLeds(unsigned char, unsigned char, unsigned char, bool)>
/home/wlf-solar/Documents/bsides-leeds-2026-badge/firmware/firmware.ino:691
  for (uint8_t i = 0 + initial; i < 18; i = i + 2)
  {
    ledStrip.setPixelColor(i, 0,0,255);
    1644:	2f ef       	ldi	r18, 0xFF	; 255
    1646:	40 e0       	ldi	r20, 0x00	; 0
    1648:	60 e0       	ldi	r22, 0x00	; 0
    164a:	81 2f       	mov	r24, r17
    164c:	90 e0       	ldi	r25, 0x00	; 0
    164e:	78 d5       	rcall	.+2800   	; 0x2140 <__TEXT_REGION_LENGTH__+0x140>
/home/wlf-solar/Documents/bsides-leeds-2026-badge/firmware/firmware.ino:689

uint8_t policeMode(uint16_t step)
{
  uint8_t initial = step % 2;
  setAllLeds(10,0,0);
  for (uint8_t i = 0 + initial; i < 18; i = i + 2)
    1650:	1e 5f       	subi	r17, 0xFE	; 254
    1652:	12 31       	cpi	r17, 0x12	; 18
    1654:	b8 f3       	brcs	.-18     	; 0x1644 <main+0x568>
timer():
/home/wlf-solar/Documents/bsides-leeds-2026-badge/firmware/firmware.ino:815

    if (flashOn) {
      setAllLeds(10, 0, 0);
    }

    ledStrip.show();
    1656:	30 d6       	rcall	.+3168   	; 0x22b8 <__TEXT_REGION_LENGTH__+0x2b8>
main():
/home/wlf-solar/Documents/bsides-leeds-2026-badge/firmware/firmware.ino:1195
      if ((state & B00000001) != 0) { return 0; };
      return policeMode(step);
    case 9:
      return spinMode(step, 1, 0, 3, 0,0,3,75);
    case 10:
      return timer(step);
    1658:	04 e6       	ldi	r16, 0x64	; 100
    165a:	10 e0       	ldi	r17, 0x00	; 0
    165c:	1d cf       	rjmp	.-454    	; 0x1498 <main+0x3bc>
spinMode():
/home/wlf-solar/Documents/bsides-leeds-2026-badge/firmware/firmware.ino:760
  10, 9, 17, 16, 15, 14, 13, 12, 11,
};

uint8_t spinMode(uint16_t step, uint8_t r, uint8_t g, uint8_t b, uint8_t r2, uint8_t g2, uint8_t b2, uint8_t ret, uint8_t offset = 0 )
{
  step = step % 9;
    165e:	c2 01       	movw	r24, r4
    1660:	69 e0       	ldi	r22, 0x09	; 9
    1662:	70 e0       	ldi	r23, 0x00	; 0
    1664:	1c d4       	rcall	.+2104   	; 0x1e9e <__udivmodhi4>
    1666:	7c 01       	movw	r14, r24
/home/wlf-solar/Documents/bsides-leeds-2026-badge/firmware/firmware.ino:761
  setAllLeds(0,0,0);
    1668:	20 e0       	ldi	r18, 0x00	; 0
    166a:	40 e0       	ldi	r20, 0x00	; 0
    166c:	60 e0       	ldi	r22, 0x00	; 0
    166e:	80 e0       	ldi	r24, 0x00	; 0
    1670:	73 d8       	rcall	.-3866   	; 0x758 <setAllLeds(unsigned char, unsigned char, unsigned char, bool)>
main():
/home/wlf-solar/Documents/bsides-leeds-2026-badge/firmware/firmware.ino:762
  for (uint8_t i = 0; i < 7; i++ )
    1672:	91 2c       	mov	r9, r1
    1674:	39 2c       	mov	r3, r9
    1676:	33 0c       	add	r3, r3
    1678:	39 0c       	add	r3, r9
spinMode():
/home/wlf-solar/Documents/bsides-leeds-2026-badge/firmware/firmware.ino:764
  {
    ledStrip.setPixelColor(pgm_read_byte(&SPIN_LEDS_LEFT[(step + i) % 9]), r * i,g * i,b * i);
    167a:	c7 01       	movw	r24, r14
    167c:	69 e0       	ldi	r22, 0x09	; 9
    167e:	70 e0       	ldi	r23, 0x00	; 0
    1680:	0e d4       	rcall	.+2076   	; 0x1e9e <__udivmodhi4>
    1682:	8c 01       	movw	r16, r24
    1684:	fc 01       	movw	r30, r24
    1686:	e9 59       	subi	r30, 0x99	; 153
    1688:	ff 4f       	sbci	r31, 0xFF	; 255
    168a:	84 91       	lpm	r24, Z
    168c:	23 2d       	mov	r18, r3
    168e:	40 e0       	ldi	r20, 0x00	; 0
    1690:	69 2d       	mov	r22, r9
    1692:	90 e0       	ldi	r25, 0x00	; 0
    1694:	55 d5       	rcall	.+2730   	; 0x2140 <__TEXT_REGION_LENGTH__+0x140>
/home/wlf-solar/Documents/bsides-leeds-2026-badge/firmware/firmware.ino:765
    ledStrip.setPixelColor(pgm_read_byte(&SPIN_LEDS_RIGHT[(step + i + offset) % 9]), r2 * i,g2 * i,b2 * i);
    1696:	f8 01       	movw	r30, r16
    1698:	e2 5a       	subi	r30, 0xA2	; 162
    169a:	ff 4f       	sbci	r31, 0xFF	; 255
    169c:	e4 91       	lpm	r30, Z
    169e:	23 2d       	mov	r18, r3
    16a0:	40 e0       	ldi	r20, 0x00	; 0
    16a2:	60 e0       	ldi	r22, 0x00	; 0
    16a4:	8e 2f       	mov	r24, r30
    16a6:	90 e0       	ldi	r25, 0x00	; 0
    16a8:	4b d5       	rcall	.+2710   	; 0x2140 <__TEXT_REGION_LENGTH__+0x140>
/home/wlf-solar/Documents/bsides-leeds-2026-badge/firmware/firmware.ino:762

uint8_t spinMode(uint16_t step, uint8_t r, uint8_t g, uint8_t b, uint8_t r2, uint8_t g2, uint8_t b2, uint8_t ret, uint8_t offset = 0 )
{
  step = step % 9;
  setAllLeds(0,0,0);
  for (uint8_t i = 0; i < 7; i++ )
    16aa:	93 94       	inc	r9
    16ac:	3f ef       	ldi	r19, 0xFF	; 255
    16ae:	e3 1a       	sub	r14, r19
    16b0:	f3 0a       	sbc	r15, r19
    16b2:	67 e0       	ldi	r22, 0x07	; 7
    16b4:	96 12       	cpse	r9, r22
    16b6:	de cf       	rjmp	.-68     	; 0x1674 <main+0x598>
/home/wlf-solar/Documents/bsides-leeds-2026-badge/firmware/firmware.ino:767
  {
    ledStrip.setPixelColor(pgm_read_byte(&SPIN_LEDS_LEFT[(step + i) % 9]), r * i,g * i,b * i);
    ledStrip.setPixelColor(pgm_read_byte(&SPIN_LEDS_RIGHT[(step + i + offset) % 9]), r2 * i,g2 * i,b2 * i);
  }
  ledStrip.show();
    16b8:	ff d5       	rcall	.+3070   	; 0x22b8 <__TEXT_REGION_LENGTH__+0x2b8>
main():
/home/wlf-solar/Documents/bsides-leeds-2026-badge/firmware/firmware.ino:1193
      return yorkRose(step);
    case 8:
      if ((state & B00000001) != 0) { return 0; };
      return policeMode(step);
    case 9:
      return spinMode(step, 1, 0, 3, 0,0,3,75);
    16ba:	0b e4       	ldi	r16, 0x4B	; 75
    16bc:	10 e0       	ldi	r17, 0x00	; 0
    16be:	ec ce       	rjmp	.-552    	; 0x1498 <main+0x3bc>
timer():
/home/wlf-solar/Documents/bsides-leeds-2026-badge/firmware/firmware.ino:802
  const uint16_t minuteSteps = multiplier * eyeLedCount;
  const uint16_t timerSteps = minuteSteps * totalMinutes;
  const uint16_t finishedSteps = 5000 / frameMs;      // 5 seconds

  const uint16_t totalSteps = preFlashSteps + timerSteps + finishedSteps;
  step = step % totalSteps;
    16c0:	c2 01       	movw	r24, r4
    16c2:	6f e3       	ldi	r22, 0x3F	; 63
    16c4:	74 e1       	ldi	r23, 0x14	; 20
    16c6:	eb d3       	rcall	.+2006   	; 0x1e9e <__udivmodhi4>
    16c8:	8c 01       	movw	r16, r24
/home/wlf-solar/Documents/bsides-leeds-2026-badge/firmware/firmware.ino:805

  // Clear both eyes.
  setAllLeds(0, 0, 0);
    16ca:	20 e0       	ldi	r18, 0x00	; 0
    16cc:	40 e0       	ldi	r20, 0x00	; 0
    16ce:	60 e0       	ldi	r22, 0x00	; 0
    16d0:	80 e0       	ldi	r24, 0x00	; 0
    16d2:	42 d8       	rcall	.-3964   	; 0x758 <setAllLeds(unsigned char, unsigned char, unsigned char, bool)>
/home/wlf-solar/Documents/bsides-leeds-2026-badge/firmware/firmware.ino:809

  // First 3 seconds: flash on/off every half second.
  if (step < preFlashSteps) {
    const bool flashOn = ((step / halfSecondSteps) % 2) == 0;
    16d4:	c8 01       	movw	r24, r16
/home/wlf-solar/Documents/bsides-leeds-2026-badge/firmware/firmware.ino:808

  // Clear both eyes.
  setAllLeds(0, 0, 0);

  // First 3 seconds: flash on/off every half second.
  if (step < preFlashSteps) {
    16d6:	0e 31       	cpi	r16, 0x1E	; 30
    16d8:	11 05       	cpc	r17, r1
    16da:	58 f4       	brcc	.+22     	; 0x16f2 <main+0x616>
/home/wlf-solar/Documents/bsides-leeds-2026-badge/firmware/firmware.ino:809
    const bool flashOn = ((step / halfSecondSteps) % 2) == 0;
    16dc:	65 e0       	ldi	r22, 0x05	; 5
    16de:	70 e0       	ldi	r23, 0x00	; 0
    16e0:	de d3       	rcall	.+1980   	; 0x1e9e <__udivmodhi4>
/home/wlf-solar/Documents/bsides-leeds-2026-badge/firmware/firmware.ino:811

    if (flashOn) {
    16e2:	60 fd       	sbrc	r22, 0
    16e4:	b8 cf       	rjmp	.-144    	; 0x1656 <main+0x57a>
/home/wlf-solar/Documents/bsides-leeds-2026-badge/firmware/firmware.ino:812
      setAllLeds(10, 0, 0);
    16e6:	20 e0       	ldi	r18, 0x00	; 0
    16e8:	40 e0       	ldi	r20, 0x00	; 0
    16ea:	60 e0       	ldi	r22, 0x00	; 0
    16ec:	8a e0       	ldi	r24, 0x0A	; 10
    16ee:	34 d8       	rcall	.-3992   	; 0x758 <setAllLeds(unsigned char, unsigned char, unsigned char, bool)>
    16f0:	b2 cf       	rjmp	.-156    	; 0x1656 <main+0x57a>
/home/wlf-solar/Documents/bsides-leeds-2026-badge/firmware/firmware.ino:819

    ledStrip.show();
    return frameMs;
  }

  step -= preFlashSteps;
    16f2:	4e 97       	sbiw	r24, 0x1e	; 30
/home/wlf-solar/Documents/bsides-leeds-2026-badge/firmware/firmware.ino:822

  // Timer phase.
  if (step < timerSteps) {
    16f4:	8f 3e       	cpi	r24, 0xEF	; 239
    16f6:	a3 e1       	ldi	r26, 0x13	; 19
    16f8:	9a 07       	cpc	r25, r26
    16fa:	38 f5       	brcc	.+78     	; 0x174a <main+0x66e>
/home/wlf-solar/Documents/bsides-leeds-2026-badge/firmware/firmware.ino:823
    const uint8_t completedMinutes = step / minuteSteps;
    16fc:	67 e3       	ldi	r22, 0x37	; 55
    16fe:	72 e0       	ldi	r23, 0x02	; 2
    1700:	ce d3       	rcall	.+1948   	; 0x1e9e <__udivmodhi4>
    1702:	e6 2e       	mov	r14, r22
/home/wlf-solar/Documents/bsides-leeds-2026-badge/firmware/firmware.ino:826
    const uint16_t currentMinuteStep = step % minuteSteps;

    uint8_t rightEyeLedsLit = (currentMinuteStep / multiplier) + 1;
    1704:	6f e3       	ldi	r22, 0x3F	; 63
    1706:	70 e0       	ldi	r23, 0x00	; 0
    1708:	ca d3       	rcall	.+1940   	; 0x1e9e <__udivmodhi4>
    170a:	ff 24       	eor	r15, r15
    170c:	f3 94       	inc	r15
    170e:	f6 0e       	add	r15, r22
    1710:	10 e0       	ldi	r17, 0x00	; 0
    1712:	00 e0       	ldi	r16, 0x00	; 0
/home/wlf-solar/Documents/bsides-leeds-2026-badge/firmware/firmware.ino:833
    if (rightEyeLedsLit > eyeLedCount) {
      rightEyeLedsLit = eyeLedCount;
    }

    // Left eye: one light per completed minute.
    for (uint8_t ledIndex = 0; ledIndex < completedMinutes; ++ledIndex) {
    1714:	0e 15       	cp	r16, r14
    1716:	a0 f4       	brcc	.+40     	; 0x1740 <main+0x664>
/home/wlf-solar/Documents/bsides-leeds-2026-badge/firmware/firmware.ino:834
      ledStrip.setPixelColor(ledIndex, 10, 0, 0);
    1718:	20 e0       	ldi	r18, 0x00	; 0
    171a:	40 e0       	ldi	r20, 0x00	; 0
    171c:	6a e0       	ldi	r22, 0x0A	; 10
    171e:	c8 01       	movw	r24, r16
    1720:	0f d5       	rcall	.+2590   	; 0x2140 <__TEXT_REGION_LENGTH__+0x140>
    1722:	0f 5f       	subi	r16, 0xFF	; 255
    1724:	1f 4f       	sbci	r17, 0xFF	; 255
    1726:	f6 cf       	rjmp	.-20     	; 0x1714 <main+0x638>
/home/wlf-solar/Documents/bsides-leeds-2026-badge/firmware/firmware.ino:838
    }

    // Right eye: progress through the current minute.
    for (uint8_t ledIndex = 0; ledIndex < rightEyeLedsLit; ++ledIndex) {
    1728:	c8 01       	movw	r24, r16
    172a:	0f 5f       	subi	r16, 0xFF	; 255
    172c:	1f 4f       	sbci	r17, 0xFF	; 255
setRightEyeLed():
/home/wlf-solar/Documents/bsides-leeds-2026-badge/firmware/firmware.ino:300
  setLeftEye(red, green, blue, 9);
}

void setRightEyeLed(uint8_t ledIndex, uint8_t red, uint8_t green, uint8_t blue)
{
  ledStrip.setPixelColor(ledIndex == 0 ? 17 : ledIndex + 8, red, green, blue);
    172e:	20 e0       	ldi	r18, 0x00	; 0
    1730:	40 e0       	ldi	r20, 0x00	; 0
    1732:	6a e0       	ldi	r22, 0x0A	; 10
    1734:	05 d5       	rcall	.+2570   	; 0x2140 <__TEXT_REGION_LENGTH__+0x140>
timer():
/home/wlf-solar/Documents/bsides-leeds-2026-badge/firmware/firmware.ino:838
    for (uint8_t ledIndex = 0; ledIndex < completedMinutes; ++ledIndex) {
      ledStrip.setPixelColor(ledIndex, 10, 0, 0);
    }

    // Right eye: progress through the current minute.
    for (uint8_t ledIndex = 0; ledIndex < rightEyeLedsLit; ++ledIndex) {
    1736:	88 ef       	ldi	r24, 0xF8	; 248
    1738:	80 0f       	add	r24, r16
    173a:	8f 15       	cp	r24, r15
    173c:	a8 f3       	brcs	.-22     	; 0x1728 <main+0x64c>
    173e:	8b cf       	rjmp	.-234    	; 0x1656 <main+0x57a>
/home/wlf-solar/Documents/bsides-leeds-2026-badge/firmware/firmware.ino:833
    if (rightEyeLedsLit > eyeLedCount) {
      rightEyeLedsLit = eyeLedCount;
    }

    // Left eye: one light per completed minute.
    for (uint8_t ledIndex = 0; ledIndex < completedMinutes; ++ledIndex) {
    1740:	09 e0       	ldi	r16, 0x09	; 9
    1742:	10 e0       	ldi	r17, 0x00	; 0
main():
/home/wlf-solar/Documents/bsides-leeds-2026-badge/firmware/firmware.ino:300
  setLeftEye(red, green, blue, 9);
}

void setRightEyeLed(uint8_t ledIndex, uint8_t red, uint8_t green, uint8_t blue)
{
  ledStrip.setPixelColor(ledIndex == 0 ? 17 : ledIndex + 8, red, green, blue);
    1744:	81 e1       	ldi	r24, 0x11	; 17
    1746:	90 e0       	ldi	r25, 0x00	; 0
    1748:	f2 cf       	rjmp	.-28     	; 0x172e <main+0x652>
timer():
/home/wlf-solar/Documents/bsides-leeds-2026-badge/firmware/firmware.ino:847
    ledStrip.show();
    return frameMs;
  }

  // Finished phase: both eyes green for 5 seconds.
  setAllLeds(0, 30, 0, true);
    174a:	21 e0       	ldi	r18, 0x01	; 1
    174c:	40 e0       	ldi	r20, 0x00	; 0
    174e:	6e e1       	ldi	r22, 0x1E	; 30
    1750:	80 e0       	ldi	r24, 0x00	; 0
    1752:	02 d8       	rcall	.-4092   	; 0x758 <setAllLeds(unsigned char, unsigned char, unsigned char, bool)>
    1754:	81 cf       	rjmp	.-254    	; 0x1658 <main+0x57c>
playMorseMode():
/home/wlf-solar/Documents/bsides-leeds-2026-badge/firmware/firmware.ino:1113
  delay(MORSE_SYM_GAP);
}

void playMorseMode()
{
  setAllLeds(COLOR_OFF, true);
    1756:	41 e0       	ldi	r20, 0x01	; 1
    1758:	88 2d       	mov	r24, r8
    175a:	b3 01       	movw	r22, r6
    175c:	22 d8       	rcall	.-4028   	; 0x7a2 <setAllLeds(RgbColor, bool)>
delay():
    175e:	68 e5       	ldi	r22, 0x58	; 88
    1760:	72 e0       	ldi	r23, 0x02	; 2
    1762:	80 e0       	ldi	r24, 0x00	; 0
    1764:	90 e0       	ldi	r25, 0x00	; 0
    1766:	32 d5       	rcall	.+2660   	; 0x21cc <__TEXT_REGION_LENGTH__+0x1cc>
    1768:	18 e0       	ldi	r17, 0x08	; 8
    176a:	f1 2e       	mov	r15, r17
main():
/home/wlf-solar/Documents/bsides-leeds-2026-badge/firmware/firmware.ino:1116
  delay(600);

  uint8_t pos = 0;
    176c:	10 e0       	ldi	r17, 0x00	; 0
playMorseMode():
/home/wlf-solar/Documents/bsides-leeds-2026-badge/firmware/firmware.ino:1118
  for (uint8_t ch = 0; ch < MORSE_CHARS; ++ch) {
    const uint8_t len = pgm_read_byte(&MORSE_SEQ[pos++]);
    176e:	ee 24       	eor	r14, r14
    1770:	e3 94       	inc	r14
    1772:	e1 0e       	add	r14, r17
    1774:	e1 2f       	mov	r30, r17
    1776:	f0 e0       	ldi	r31, 0x00	; 0
    1778:	ec 5c       	subi	r30, 0xCC	; 204
    177a:	ff 4f       	sbci	r31, 0xFF	; 255
    177c:	04 91       	lpm	r16, Z
    177e:	10 0f       	add	r17, r16
    1780:	1f 5f       	subi	r17, 0xFF	; 255
main():
    1782:	ee 2d       	mov	r30, r14
playMorseMode():
/home/wlf-solar/Documents/bsides-leeds-2026-badge/firmware/firmware.ino:1119
    for (uint8_t s = 0; s < len; ++s) {
    1784:	1e 17       	cp	r17, r30
    1786:	81 f0       	breq	.+32     	; 0x17a8 <main+0x6cc>
/home/wlf-solar/Documents/bsides-leeds-2026-badge/firmware/firmware.ino:1120
      morseFlash(pgm_read_byte(&MORSE_SEQ[pos++]) ? MORSE_DIT_MS : MORSE_DAH_MS);
    1788:	99 24       	eor	r9, r9
    178a:	93 94       	inc	r9
    178c:	9e 0e       	add	r9, r30
    178e:	f0 e0       	ldi	r31, 0x00	; 0
    1790:	ec 5c       	subi	r30, 0xCC	; 204
    1792:	ff 4f       	sbci	r31, 0xFF	; 255
    1794:	e4 91       	lpm	r30, Z
main():
    1796:	86 e9       	ldi	r24, 0x96	; 150
    1798:	90 e0       	ldi	r25, 0x00	; 0
playMorseMode():
    179a:	e1 11       	cpse	r30, r1
    179c:	02 c0       	rjmp	.+4      	; 0x17a2 <main+0x6c6>
main():
    179e:	82 ec       	ldi	r24, 0xC2	; 194
    17a0:	91 e0       	ldi	r25, 0x01	; 1
playMorseMode():
    17a2:	84 da       	rcall	.-2808   	; 0xcac <morseFlash(unsigned int)>
main():
    17a4:	e9 2d       	mov	r30, r9
    17a6:	ee cf       	rjmp	.-36     	; 0x1784 <main+0x6a8>
    17a8:	1e 2d       	mov	r17, r14
    17aa:	10 0f       	add	r17, r16
delay():
    17ac:	62 ec       	ldi	r22, 0xC2	; 194
    17ae:	71 e0       	ldi	r23, 0x01	; 1
    17b0:	80 e0       	ldi	r24, 0x00	; 0
    17b2:	90 e0       	ldi	r25, 0x00	; 0
    17b4:	0b d5       	rcall	.+2582   	; 0x21cc <__TEXT_REGION_LENGTH__+0x1cc>
    17b6:	fa 94       	dec	r15
playMorseMode():
/home/wlf-solar/Documents/bsides-leeds-2026-badge/firmware/firmware.ino:1117
{
  setAllLeds(COLOR_OFF, true);
  delay(600);

  uint8_t pos = 0;
  for (uint8_t ch = 0; ch < MORSE_CHARS; ++ch) {
    17b8:	f1 10       	cpse	r15, r1
    17ba:	d9 cf       	rjmp	.-78     	; 0x176e <main+0x692>
delay():
    17bc:	60 eb       	ldi	r22, 0xB0	; 176
    17be:	74 e0       	ldi	r23, 0x04	; 4
    17c0:	80 e0       	ldi	r24, 0x00	; 0
    17c2:	90 e0       	ldi	r25, 0x00	; 0
    17c4:	03 d5       	rcall	.+2566   	; 0x21cc <__TEXT_REGION_LENGTH__+0x1cc>
loop():
/home/wlf-solar/Documents/bsides-leeds-2026-badge/firmware/firmware.ino:1288

  while (true) {
    int intervalMs = runAnimationMode(animationMode, animationStep);

    if (intervalMs == 0) {
      animationMode++;
    17c6:	23 94       	inc	r2
    17c8:	10 e0       	ldi	r17, 0x00	; 0
    17ca:	00 e0       	ldi	r16, 0x00	; 0
    17cc:	65 ce       	rjmp	.-822    	; 0x1498 <main+0x3bc>
matrixCascade():
/home/wlf-solar/Documents/bsides-leeds-2026-badge/firmware/firmware.ino:932
// ---- Matrix cascade ----
// A bright green comet chases around each eye ring leaving a fading trail.
// Right eye runs half a ring behind for visual separation.
uint8_t matrixCascade(uint16_t step)
{
  const uint8_t head = step % 9;
    17ce:	c2 01       	movw	r24, r4
    17d0:	69 e0       	ldi	r22, 0x09	; 9
    17d2:	70 e0       	ldi	r23, 0x00	; 0
    17d4:	64 d3       	rcall	.+1736   	; 0x1e9e <__udivmodhi4>
    17d6:	8c 01       	movw	r16, r24
/home/wlf-solar/Documents/bsides-leeds-2026-badge/firmware/firmware.ino:933
  setAllLeds(0, 0, 0);
    17d8:	20 e0       	ldi	r18, 0x00	; 0
    17da:	40 e0       	ldi	r20, 0x00	; 0
    17dc:	60 e0       	ldi	r22, 0x00	; 0
    17de:	80 e0       	ldi	r24, 0x00	; 0
    17e0:	bb d7       	rcall	.+3958   	; 0x2758 <__TEXT_REGION_LENGTH__+0x758>
/home/wlf-solar/Documents/bsides-leeds-2026-badge/firmware/firmware.ino:936

  // tail brightness: head=full, fading back 4 positions
  const uint8_t tail[5] = { 30, 16, 8, 3, 1 };
    17e2:	85 e0       	ldi	r24, 0x05	; 5
    17e4:	ee ea       	ldi	r30, 0xAE	; 174
    17e6:	ff e9       	ldi	r31, 0x9F	; 159
    17e8:	de 01       	movw	r26, r28
    17ea:	11 96       	adiw	r26, 0x01	; 1
    17ec:	01 90       	ld	r0, Z+
    17ee:	0d 92       	st	X+, r0
    17f0:	8a 95       	dec	r24
    17f2:	e1 f7       	brne	.-8      	; 0x17ec <main+0x710>
    17f4:	78 01       	movw	r14, r16
    17f6:	bd e0       	ldi	r27, 0x0D	; 13
    17f8:	eb 0e       	add	r14, r27
    17fa:	f1 1c       	adc	r15, r1
    17fc:	fe 01       	movw	r30, r28
    17fe:	31 96       	adiw	r30, 0x01	; 1
    1800:	ea 8b       	std	Y+18, r30	; 0x12
    1802:	fb 8b       	std	Y+19, r31	; 0x13
    1804:	98 01       	movw	r18, r16
    1806:	28 5f       	subi	r18, 0xF8	; 248
    1808:	3f 4f       	sbci	r19, 0xFF	; 255
    180a:	2f 8b       	std	Y+23, r18	; 0x17
    180c:	38 8f       	std	Y+24, r19	; 0x18
/home/wlf-solar/Documents/bsides-leeds-2026-badge/firmware/firmware.ino:939

  for (uint8_t t = 0; t < 5; ++t) {
    uint8_t posL = (head + 9 - t) % 9;
    180e:	09 e0       	ldi	r16, 0x09	; 9
    1810:	10 e0       	ldi	r17, 0x00	; 0
/home/wlf-solar/Documents/bsides-leeds-2026-badge/firmware/firmware.ino:941
    uint8_t posR = (head + 9 - t + 4) % 9; // offset right eye by 4
    ledStrip.setPixelColor(pgm_read_byte(&SPIN_LEDS_LEFT[posL]),  0, tail[t], 0);
    1812:	aa 89       	ldd	r26, Y+18	; 0x12
    1814:	bb 89       	ldd	r27, Y+19	; 0x13
    1816:	9d 90       	ld	r9, X+
    1818:	aa 8b       	std	Y+18, r26	; 0x12
    181a:	bb 8b       	std	Y+19, r27	; 0x13
/home/wlf-solar/Documents/bsides-leeds-2026-badge/firmware/firmware.ino:939

  // tail brightness: head=full, fading back 4 positions
  const uint8_t tail[5] = { 30, 16, 8, 3, 1 };

  for (uint8_t t = 0; t < 5; ++t) {
    uint8_t posL = (head + 9 - t) % 9;
    181c:	c7 01       	movw	r24, r14
    181e:	04 97       	sbiw	r24, 0x04	; 4
    1820:	b8 01       	movw	r22, r16
    1822:	51 d3       	rcall	.+1698   	; 0x1ec6 <__divmodhi4>
/home/wlf-solar/Documents/bsides-leeds-2026-badge/firmware/firmware.ino:941
    uint8_t posR = (head + 9 - t + 4) % 9; // offset right eye by 4
    ledStrip.setPixelColor(pgm_read_byte(&SPIN_LEDS_LEFT[posL]),  0, tail[t], 0);
    1824:	89 59       	subi	r24, 0x99	; 153
    1826:	9f 4f       	sbci	r25, 0xFF	; 255
    1828:	fc 01       	movw	r30, r24
    182a:	84 91       	lpm	r24, Z
    182c:	20 e0       	ldi	r18, 0x00	; 0
    182e:	49 2d       	mov	r20, r9
    1830:	60 e0       	ldi	r22, 0x00	; 0
    1832:	90 e0       	ldi	r25, 0x00	; 0
    1834:	85 d4       	rcall	.+2314   	; 0x2140 <__TEXT_REGION_LENGTH__+0x140>
/home/wlf-solar/Documents/bsides-leeds-2026-badge/firmware/firmware.ino:940
  // tail brightness: head=full, fading back 4 positions
  const uint8_t tail[5] = { 30, 16, 8, 3, 1 };

  for (uint8_t t = 0; t < 5; ++t) {
    uint8_t posL = (head + 9 - t) % 9;
    uint8_t posR = (head + 9 - t + 4) % 9; // offset right eye by 4
    1836:	c7 01       	movw	r24, r14
    1838:	b8 01       	movw	r22, r16
    183a:	45 d3       	rcall	.+1674   	; 0x1ec6 <__divmodhi4>
/home/wlf-solar/Documents/bsides-leeds-2026-badge/firmware/firmware.ino:942
    ledStrip.setPixelColor(pgm_read_byte(&SPIN_LEDS_LEFT[posL]),  0, tail[t], 0);
    ledStrip.setPixelColor(pgm_read_byte(&SPIN_LEDS_RIGHT[posR]), 0, tail[t], 0);
    183c:	82 5a       	subi	r24, 0xA2	; 162
    183e:	9f 4f       	sbci	r25, 0xFF	; 255
    1840:	fc 01       	movw	r30, r24
    1842:	84 91       	lpm	r24, Z
    1844:	20 e0       	ldi	r18, 0x00	; 0
    1846:	49 2d       	mov	r20, r9
    1848:	60 e0       	ldi	r22, 0x00	; 0
    184a:	90 e0       	ldi	r25, 0x00	; 0
    184c:	79 d4       	rcall	.+2290   	; 0x2140 <__TEXT_REGION_LENGTH__+0x140>
    184e:	f1 e0       	ldi	r31, 0x01	; 1
    1850:	ef 1a       	sub	r14, r31
    1852:	f1 08       	sbc	r15, r1
/home/wlf-solar/Documents/bsides-leeds-2026-badge/firmware/firmware.ino:938
  setAllLeds(0, 0, 0);

  // tail brightness: head=full, fading back 4 positions
  const uint8_t tail[5] = { 30, 16, 8, 3, 1 };

  for (uint8_t t = 0; t < 5; ++t) {
    1854:	2f 89       	ldd	r18, Y+23	; 0x17
    1856:	38 8d       	ldd	r19, Y+24	; 0x18
    1858:	e2 16       	cp	r14, r18
    185a:	f3 06       	cpc	r15, r19
    185c:	d1 f6       	brne	.-76     	; 0x1812 <main+0x736>
/home/wlf-solar/Documents/bsides-leeds-2026-badge/firmware/firmware.ino:945
    uint8_t posR = (head + 9 - t + 4) % 9; // offset right eye by 4
    ledStrip.setPixelColor(pgm_read_byte(&SPIN_LEDS_LEFT[posL]),  0, tail[t], 0);
    ledStrip.setPixelColor(pgm_read_byte(&SPIN_LEDS_RIGHT[posR]), 0, tail[t], 0);
  }

  ledStrip.show();
    185e:	2c d5       	rcall	.+2648   	; 0x22b8 <__TEXT_REGION_LENGTH__+0x2b8>
main():
/home/wlf-solar/Documents/bsides-leeds-2026-badge/firmware/firmware.ino:1200
      return timer(step);
    case 11:
      playMorseMode();
      return 0;
    case 12:
      return matrixCascade(step);
    1860:	00 e5       	ldi	r16, 0x50	; 80
    1862:	10 e0       	ldi	r17, 0x00	; 0
    1864:	19 ce       	rjmp	.-974    	; 0x1498 <main+0x3bc>
loop():
/home/wlf-solar/Documents/bsides-leeds-2026-badge/firmware/firmware.ino:1305
      showTouchedPads();
      delay(TOUCH_POLL_MS);
      intervalMs -= TOUCH_POLL_MS;

      const uint16_t buttonLowTime = measureWakeButtonLowTime(MAX_BUTTON_HOLD_MS);
      if (buttonLowTime > SHORT_PRESS_THRESHOLD_MS) {
    1866:	f9 ec       	ldi	r31, 0xC9	; 201
    1868:	ef 16       	cp	r14, r31
    186a:	f1 04       	cpc	r15, r1
    186c:	08 f4       	brcc	.+2      	; 0x1870 <main+0x794>
    186e:	60 c0       	rjmp	.+192    	; 0x1930 <main+0x854>
handleWakeButtonPress():
/home/wlf-solar/Documents/bsides-leeds-2026-badge/firmware/firmware.ino:1213
  uint8_t &animationMode,
  uint16_t &animationStep,
  uint32_t &totalIntervalMs
)
{
  if (heldMs > LONG_PRESS_THRESHOLD_MS) {
    1870:	21 eb       	ldi	r18, 0xB1	; 177
    1872:	e2 16       	cp	r14, r18
    1874:	24 e0       	ldi	r18, 0x04	; 4
    1876:	f2 06       	cpc	r15, r18
    1878:	08 f0       	brcs	.+2      	; 0x187c <main+0x7a0>
    187a:	85 c0       	rjmp	.+266    	; 0x1986 <main+0x8aa>
/home/wlf-solar/Documents/bsides-leeds-2026-badge/firmware/firmware.ino:1223
      miniSleep();
    }

    enterSleep();
  } else {
    const uint8_t pressedMask = getPressedTouchMask();
    187c:	16 d8       	rcall	.-4052   	; 0x8aa <getPressedTouchMask()>
    187e:	f8 2e       	mov	r15, r24
waitForAllTouchPadsReleased():
/home/wlf-solar/Documents/bsides-leeds-2026-badge/firmware/firmware.ino:359
  return getPressedTouchMask() != 0;
}

void waitForAllTouchPadsReleased()
{
  while (getPressedTouchMask() != 0) {
    1880:	14 d8       	rcall	.-4056   	; 0x8aa <getPressedTouchMask()>
    1882:	d8 2e       	mov	r13, r24
    1884:	88 23       	and	r24, r24
    1886:	01 f1       	breq	.+64     	; 0x18c8 <main+0x7ec>
_delay_ms():
/home/wlf-solar/.arduino15/packages/DxCore/tools/avr-gcc/7.3.0-atmel3.6.1-azduino7b1/avr/include/util/delay.h:187
    1888:	af e4       	ldi	r26, 0x4F	; 79
    188a:	b3 ec       	ldi	r27, 0xC3	; 195
    188c:	11 97       	sbiw	r26, 0x01	; 1
    188e:	f1 f7       	brne	.-4      	; 0x188c <main+0x7b0>
    1890:	00 c0       	rjmp	.+0      	; 0x1892 <main+0x7b6>
    1892:	00 00       	nop
    1894:	f5 cf       	rjmp	.-22     	; 0x1880 <main+0x7a4>
waitForWakeButtonReleased():
/home/wlf-solar/Documents/bsides-leeds-2026-badge/firmware/firmware.ino:366
  }
}

void waitForWakeButtonReleased()
{
  while (digitalRead(WAKE_BUTTON_PIN) == LOW) {
    1896:	93 e0       	ldi	r25, 0x03	; 3
miniSleep():
/home/wlf-solar/Documents/bsides-leeds-2026-badge/firmware/firmware.ino:206
  rebootOnButtonPress = false;
}

void miniSleep(uint8_t period = RTC_PERIOD_CYC16_gc)
{
  RTC.PITINTCTRL = RTC_PI_bm;
    1898:	41 e0       	ldi	r20, 0x01	; 1
/home/wlf-solar/Documents/bsides-leeds-2026-badge/firmware/firmware.ino:207
  RTC.PITCTRLA = period | RTC_PITEN_bm;
    189a:	39 e1       	ldi	r19, 0x19	; 25
/home/wlf-solar/Documents/bsides-leeds-2026-badge/firmware/firmware.ino:213

  set_sleep_mode(SLEEP_MODE_PWR_DOWN);
  sleep_enable();
  sleep_cpu();

  RTC.PITINTCTRL = ~(RTC_PI_bm);
    189c:	2e ef       	ldi	r18, 0xFE	; 254
/home/wlf-solar/Documents/bsides-leeds-2026-badge/firmware/firmware.ino:206
  rebootOnButtonPress = false;
}

void miniSleep(uint8_t period = RTC_PERIOD_CYC16_gc)
{
  RTC.PITINTCTRL = RTC_PI_bm;
    189e:	40 93 52 01 	sts	0x0152, r20	; 0x800152 <digital_pin_to_bit_mask+0x7f6166>
/home/wlf-solar/Documents/bsides-leeds-2026-badge/firmware/firmware.ino:207
  RTC.PITCTRLA = period | RTC_PITEN_bm;
    18a2:	30 93 50 01 	sts	0x0150, r19	; 0x800150 <digital_pin_to_bit_mask+0x7f6164>
/home/wlf-solar/Documents/bsides-leeds-2026-badge/firmware/firmware.ino:209

  set_sleep_mode(SLEEP_MODE_PWR_DOWN);
    18a6:	80 91 50 00 	lds	r24, 0x0050	; 0x800050 <digital_pin_to_bit_mask+0x7f6064>
    18aa:	89 7f       	andi	r24, 0xF9	; 249
    18ac:	84 60       	ori	r24, 0x04	; 4
    18ae:	80 93 50 00 	sts	0x0050, r24	; 0x800050 <digital_pin_to_bit_mask+0x7f6064>
/home/wlf-solar/Documents/bsides-leeds-2026-badge/firmware/firmware.ino:210
  sleep_enable();
    18b2:	80 91 50 00 	lds	r24, 0x0050	; 0x800050 <digital_pin_to_bit_mask+0x7f6064>
    18b6:	81 60       	ori	r24, 0x01	; 1
    18b8:	80 93 50 00 	sts	0x0050, r24	; 0x800050 <digital_pin_to_bit_mask+0x7f6064>
/home/wlf-solar/Documents/bsides-leeds-2026-badge/firmware/firmware.ino:211
  sleep_cpu();
    18bc:	88 95       	sleep
/home/wlf-solar/Documents/bsides-leeds-2026-badge/firmware/firmware.ino:213

  RTC.PITINTCTRL = ~(RTC_PI_bm);
    18be:	20 93 52 01 	sts	0x0152, r18	; 0x800152 <digital_pin_to_bit_mask+0x7f6166>
    18c2:	91 50       	subi	r25, 0x01	; 1
handleWakeButtonPress():
/home/wlf-solar/Documents/bsides-leeds-2026-badge/firmware/firmware.ino:1217
{
  if (heldMs > LONG_PRESS_THRESHOLD_MS) {
    setAllLeds(COLOR_RED, true);
    waitForWakeButtonReleased();

    for (uint8_t cycle = 0; cycle < SLEEP_DEBOUNCE_CYCLES; ++cycle) {
    18c4:	61 f7       	brne	.-40     	; 0x189e <main+0x7c2>
/home/wlf-solar/Documents/bsides-leeds-2026-badge/firmware/firmware.ino:1221
      miniSleep();
    }

    enterSleep();
    18c6:	bf d8       	rcall	.-3714   	; 0xa46 <enterSleep()>
/home/wlf-solar/Documents/bsides-leeds-2026-badge/firmware/firmware.ino:1226
  } else {
    const uint8_t pressedMask = getPressedTouchMask();
    waitForAllTouchPadsReleased();

    if (pressedMask != 0) {
    18c8:	ff 20       	and	r15, r15
    18ca:	09 f4       	brne	.+2      	; 0x18ce <main+0x7f2>
    18cc:	9e c0       	rjmp	.+316    	; 0x1a0a <main+0x92e>
millis():
/home/wlf-solar/.arduino15/packages/megaTinyCore/hardware/megaavr/2.6.11/cores/megatinycore/wiring.c:167
  unsigned long millis() {
    // return timer_overflow_count; // for debugging timekeeping issues where these variables are out of scope from the sketch
    unsigned long m;
    // disable interrupts while we read timer_millis or we might get an
    // inconsistent value (e.g. in the middle of a write to timer_millis)
    uint8_t oldSREG = SREG;
    18ce:	8f b7       	in	r24, 0x3f	; 63
/home/wlf-solar/.arduino15/packages/megaTinyCore/hardware/megaavr/2.6.11/cores/megatinycore/wiring.c:168
    cli();
    18d0:	f8 94       	cli
/home/wlf-solar/.arduino15/packages/megaTinyCore/hardware/megaavr/2.6.11/cores/megatinycore/wiring.c:182
        if (!(rtccount & 0x8000)) m += 64000;
      }
      SREG = oldSREG;
      m += rtccount - (rtccount >> 5) + (rtccount >> 7);
    #else
      m = timingStruct.timer_millis;
    18d2:	40 91 d5 3e 	lds	r20, 0x3ED5	; 0x803ed5 <timingStruct+0x4>
    18d6:	50 91 d6 3e 	lds	r21, 0x3ED6	; 0x803ed6 <timingStruct+0x5>
    18da:	60 91 d7 3e 	lds	r22, 0x3ED7	; 0x803ed7 <timingStruct+0x6>
    18de:	70 91 d8 3e 	lds	r23, 0x3ED8	; 0x803ed8 <timingStruct+0x7>
/home/wlf-solar/.arduino15/packages/megaTinyCore/hardware/megaavr/2.6.11/cores/megatinycore/wiring.c:183
      SREG = oldSREG;
    18e2:	8f bf       	out	0x3f, r24	; 63
seedGameRandom():
/home/wlf-solar/Documents/bsides-leeds-2026-badge/firmware/firmware.ino:70

uint16_t randomState = 0xACE1u;

void seedGameRandom()
{
  randomState ^= (uint16_t)millis();
    18e4:	80 91 00 3e 	lds	r24, 0x3E00	; 0x803e00 <__DATA_REGION_ORIGIN__>
    18e8:	90 91 01 3e 	lds	r25, 0x3E01	; 0x803e01 <__DATA_REGION_ORIGIN__+0x1>
    18ec:	9c 01       	movw	r18, r24
    18ee:	24 27       	eor	r18, r20
    18f0:	35 27       	eor	r19, r21
    18f2:	20 93 00 3e 	sts	0x3E00, r18	; 0x803e00 <__DATA_REGION_ORIGIN__>
    18f6:	30 93 01 3e 	sts	0x3E01, r19	; 0x803e01 <__DATA_REGION_ORIGIN__+0x1>
/home/wlf-solar/Documents/bsides-leeds-2026-badge/firmware/firmware.ino:71
  if (randomState == 0) {
    18fa:	84 17       	cp	r24, r20
    18fc:	95 07       	cpc	r25, r21
    18fe:	31 f4       	brne	.+12     	; 0x190c <main+0x830>
/home/wlf-solar/Documents/bsides-leeds-2026-badge/firmware/firmware.ino:72
    randomState = 0xACE1u;
    1900:	81 ee       	ldi	r24, 0xE1	; 225
    1902:	9c ea       	ldi	r25, 0xAC	; 172
    1904:	80 93 00 3e 	sts	0x3E00, r24	; 0x803e00 <__DATA_REGION_ORIGIN__>
    1908:	90 93 01 3e 	sts	0x3E01, r25	; 0x803e01 <__DATA_REGION_ORIGIN__+0x1>
handleWakeButtonPress():
/home/wlf-solar/Documents/bsides-leeds-2026-badge/firmware/firmware.ino:1230

    if (pressedMask != 0) {
      seedGameRandom();
    }

    switch (pressedMask) {
    190c:	b4 e0       	ldi	r27, 0x04	; 4
    190e:	fb 16       	cp	r15, r27
    1910:	09 f4       	brne	.+2      	; 0x1914 <main+0x838>
    1912:	7b c1       	rjmp	.+758    	; 0x1c0a <main+0xb2e>
    1914:	bf 15       	cp	r27, r15
    1916:	08 f4       	brcc	.+2      	; 0x191a <main+0x83e>
    1918:	48 c0       	rjmp	.+144    	; 0x19aa <main+0x8ce>
    191a:	e1 e0       	ldi	r30, 0x01	; 1
    191c:	fe 16       	cp	r15, r30
    191e:	09 f4       	brne	.+2      	; 0x1922 <main+0x846>
    1920:	76 c0       	rjmp	.+236    	; 0x1a0e <main+0x932>
    1922:	f2 e0       	ldi	r31, 0x02	; 2
    1924:	ff 16       	cp	r15, r31
    1926:	09 f4       	brne	.+2      	; 0x192a <main+0x84e>
    1928:	e7 c0       	rjmp	.+462    	; 0x1af8 <main+0xa1c>
/home/wlf-solar/Documents/bsides-leeds-2026-badge/firmware/firmware.ino:1254

    }
  }

  animationStep = 0;
  totalIntervalMs = 0;
    192a:	a1 2c       	mov	r10, r1
    192c:	b1 2c       	mov	r11, r1
    192e:	65 01       	movw	r12, r10
/home/wlf-solar/Documents/bsides-leeds-2026-badge/firmware/firmware.ino:1253
        break;

    }
  }

  animationStep = 0;
    1930:	51 2c       	mov	r5, r1
    1932:	41 2c       	mov	r4, r1
loop():
/home/wlf-solar/Documents/bsides-leeds-2026-badge/firmware/firmware.ino:1302
    totalIntervalMs += intervalMs;

    while (intervalMs > 0) {
      showTouchedPads();
      delay(TOUCH_POLL_MS);
      intervalMs -= TOUCH_POLL_MS;
    1934:	0a 50       	subi	r16, 0x0A	; 10
    1936:	11 09       	sbc	r17, r1
/home/wlf-solar/Documents/bsides-leeds-2026-badge/firmware/firmware.ino:1299
    }

    ++animationStep;
    totalIntervalMs += intervalMs;

    while (intervalMs > 0) {
    1938:	10 16       	cp	r1, r16
    193a:	11 06       	cpc	r1, r17
    193c:	0c f0       	brlt	.+2      	; 0x1940 <main+0x864>
    193e:	73 c2       	rjmp	.+1254   	; 0x1e26 <main+0xd4a>
/home/wlf-solar/Documents/bsides-leeds-2026-badge/firmware/firmware.ino:1300
      showTouchedPads();
    1940:	cc d7       	rcall	.+3992   	; 0x28da <__TEXT_REGION_LENGTH__+0x8da>
_delay_ms():
/home/wlf-solar/.arduino15/packages/DxCore/tools/avr-gcc/7.3.0-atmel3.6.1-azduino7b1/avr/include/util/delay.h:187
    1942:	8f e4       	ldi	r24, 0x4F	; 79
    1944:	93 ec       	ldi	r25, 0xC3	; 195
    1946:	01 97       	sbiw	r24, 0x01	; 1
    1948:	f1 f7       	brne	.-4      	; 0x1946 <main+0x86a>
    194a:	00 c0       	rjmp	.+0      	; 0x194c <main+0x870>
    194c:	00 00       	nop
measureWakeButtonLowTime():
/home/wlf-solar/Documents/bsides-leeds-2026-badge/firmware/firmware.ino:255
  }
}

uint16_t measureWakeButtonLowTime(uint16_t maxMs)
{
  if (digitalRead(WAKE_BUTTON_PIN) == HIGH) {
    194e:	30 d8       	rcall	.-4000   	; 0x9b0 <digitalRead.constprop.36>
    1950:	81 30       	cpi	r24, 0x01	; 1
    1952:	81 f3       	breq	.-32     	; 0x1934 <main+0x858>
delay():
    1954:	62 e3       	ldi	r22, 0x32	; 50
    1956:	70 e0       	ldi	r23, 0x00	; 0
    1958:	80 e0       	ldi	r24, 0x00	; 0
    195a:	90 e0       	ldi	r25, 0x00	; 0
    195c:	37 d4       	rcall	.+2158   	; 0x21cc <__TEXT_REGION_LENGTH__+0x1cc>
main():
/home/wlf-solar/Documents/bsides-leeds-2026-badge/firmware/firmware.ino:260
    return 0;
  }

  delay(BUTTON_DEBOUNCE_MS);
  uint16_t elapsedMs = BUTTON_DEBOUNCE_MS;
    195e:	b2 e3       	ldi	r27, 0x32	; 50
    1960:	eb 2e       	mov	r14, r27
    1962:	f1 2c       	mov	r15, r1
measureWakeButtonLowTime():
/home/wlf-solar/Documents/bsides-leeds-2026-badge/firmware/firmware.ino:262

  while (digitalRead(WAKE_BUTTON_PIN) == LOW) {
    1964:	25 d8       	rcall	.-4022   	; 0x9b0 <digitalRead.constprop.36>
    1966:	81 11       	cpse	r24, r1
    1968:	7e cf       	rjmp	.-260    	; 0x1866 <main+0x78a>
_delay_ms():
/home/wlf-solar/.arduino15/packages/DxCore/tools/avr-gcc/7.3.0-atmel3.6.1-azduino7b1/avr/include/util/delay.h:187
    196a:	a7 ea       	ldi	r26, 0xA7	; 167
    196c:	b1 e6       	ldi	r27, 0x61	; 97
    196e:	11 97       	sbiw	r26, 0x01	; 1
    1970:	f1 f7       	brne	.-4      	; 0x196e <main+0x892>
    1972:	00 c0       	rjmp	.+0      	; 0x1974 <main+0x898>
    1974:	00 00       	nop
measureWakeButtonLowTime():
/home/wlf-solar/Documents/bsides-leeds-2026-badge/firmware/firmware.ino:264
    delay(5);
    elapsedMs += 5;
    1976:	b5 e0       	ldi	r27, 0x05	; 5
    1978:	eb 0e       	add	r14, r27
    197a:	f1 1c       	adc	r15, r1
/home/wlf-solar/Documents/bsides-leeds-2026-badge/firmware/firmware.ino:266

    if (elapsedMs > maxMs) {
    197c:	e5 ed       	ldi	r30, 0xD5	; 213
    197e:	ee 16       	cp	r14, r30
    1980:	e7 e0       	ldi	r30, 0x07	; 7
    1982:	fe 06       	cpc	r15, r30
    1984:	79 f7       	brne	.-34     	; 0x1964 <main+0x888>
handleWakeButtonPress():
/home/wlf-solar/Documents/bsides-leeds-2026-badge/firmware/firmware.ino:1214
  uint16_t &animationStep,
  uint32_t &totalIntervalMs
)
{
  if (heldMs > LONG_PRESS_THRESHOLD_MS) {
    setAllLeds(COLOR_RED, true);
    1986:	60 91 ce 9f 	lds	r22, 0x9FCE	; 0x809fce <__bss_end+0x60de>
    198a:	70 91 cf 9f 	lds	r23, 0x9FCF	; 0x809fcf <__bss_end+0x60df>
    198e:	80 91 d0 9f 	lds	r24, 0x9FD0	; 0x809fd0 <__bss_end+0x60e0>
    1992:	41 e0       	ldi	r20, 0x01	; 1
    1994:	06 d7       	rcall	.+3596   	; 0x27a2 <__TEXT_REGION_LENGTH__+0x7a2>
waitForWakeButtonReleased():
/home/wlf-solar/Documents/bsides-leeds-2026-badge/firmware/firmware.ino:366
  }
}

void waitForWakeButtonReleased()
{
  while (digitalRead(WAKE_BUTTON_PIN) == LOW) {
    1996:	0c d8       	rcall	.-4072   	; 0x9b0 <digitalRead.constprop.36>
    1998:	81 11       	cpse	r24, r1
    199a:	7d cf       	rjmp	.-262    	; 0x1896 <main+0x7ba>
_delay_ms():
/home/wlf-solar/.arduino15/packages/DxCore/tools/avr-gcc/7.3.0-atmel3.6.1-azduino7b1/avr/include/util/delay.h:187
    199c:	87 ea       	ldi	r24, 0xA7	; 167
    199e:	91 e6       	ldi	r25, 0x61	; 97
    19a0:	01 97       	sbiw	r24, 0x01	; 1
    19a2:	f1 f7       	brne	.-4      	; 0x19a0 <main+0x8c4>
    19a4:	00 c0       	rjmp	.+0      	; 0x19a6 <main+0x8ca>
    19a6:	00 00       	nop
    19a8:	f6 cf       	rjmp	.-20     	; 0x1996 <main+0x8ba>
handleWakeButtonPress():
/home/wlf-solar/Documents/bsides-leeds-2026-badge/firmware/firmware.ino:1230

    if (pressedMask != 0) {
      seedGameRandom();
    }

    switch (pressedMask) {
    19aa:	28 e0       	ldi	r18, 0x08	; 8
    19ac:	f2 16       	cp	r15, r18
    19ae:	09 f4       	brne	.+2      	; 0x19b2 <main+0x8d6>
    19b0:	a3 c1       	rjmp	.+838    	; 0x1cf8 <main+0xc1c>
    19b2:	30 e1       	ldi	r19, 0x10	; 16
    19b4:	f3 12       	cpse	r15, r19
    19b6:	b9 cf       	rjmp	.-142    	; 0x192a <main+0x84e>
playRickRoll():
/home/wlf-solar/Documents/bsides-leeds-2026-badge/firmware/firmware.ino:1154
};
static const uint8_t RICKROLL_CHARS = 18;

void playRickRoll()
{
  setAllLeds(COLOR_OFF, true);
    19b8:	41 e0       	ldi	r20, 0x01	; 1
    19ba:	88 2d       	mov	r24, r8
    19bc:	b3 01       	movw	r22, r6
    19be:	f1 d6       	rcall	.+3554   	; 0x27a2 <__TEXT_REGION_LENGTH__+0x7a2>
delay():
    19c0:	68 e5       	ldi	r22, 0x58	; 88
    19c2:	72 e0       	ldi	r23, 0x02	; 2
    19c4:	80 e0       	ldi	r24, 0x00	; 0
    19c6:	90 e0       	ldi	r25, 0x00	; 0
    19c8:	01 d4       	rcall	.+2050   	; 0x21cc <__TEXT_REGION_LENGTH__+0x1cc>
    19ca:	82 e1       	ldi	r24, 0x12	; 18
    19cc:	e8 2e       	mov	r14, r24
playRickRoll():
/home/wlf-solar/Documents/bsides-leeds-2026-badge/firmware/firmware.ino:1158
  delay(600);
  uint8_t pos = 0;
  for (uint8_t ch = 0; ch < RICKROLL_CHARS; ++ch) {
    const uint8_t len = pgm_read_byte(&RICKROLL_SEQ[pos++]);
    19ce:	cc 24       	eor	r12, r12
    19d0:	c3 94       	inc	r12
    19d2:	cd 0c       	add	r12, r13
    19d4:	ed 2d       	mov	r30, r13
    19d6:	f0 e0       	ldi	r31, 0x00	; 0
    19d8:	e0 59       	subi	r30, 0x90	; 144
    19da:	ff 4f       	sbci	r31, 0xFF	; 255
    19dc:	f4 90       	lpm	r15, Z
    19de:	df 0c       	add	r13, r15
    19e0:	d3 94       	inc	r13
main():
    19e2:	ec 2d       	mov	r30, r12
playRickRoll():
/home/wlf-solar/Documents/bsides-leeds-2026-badge/firmware/firmware.ino:1159
    for (uint8_t s = 0; s < len; ++s) {
    19e4:	de 16       	cp	r13, r30
    19e6:	09 f4       	brne	.+2      	; 0x19ea <main+0x90e>
    19e8:	0e c2       	rjmp	.+1052   	; 0x1e06 <main+0xd2a>
/home/wlf-solar/Documents/bsides-leeds-2026-badge/firmware/firmware.ino:1160
      morseFlash(pgm_read_byte(&RICKROLL_SEQ[pos++]) ? MORSE_DIT_MS : MORSE_DAH_MS);
    19ea:	bb 24       	eor	r11, r11
    19ec:	b3 94       	inc	r11
    19ee:	be 0e       	add	r11, r30
    19f0:	f0 e0       	ldi	r31, 0x00	; 0
    19f2:	e0 59       	subi	r30, 0x90	; 144
    19f4:	ff 4f       	sbci	r31, 0xFF	; 255
    19f6:	e4 91       	lpm	r30, Z
main():
    19f8:	86 e9       	ldi	r24, 0x96	; 150
    19fa:	90 e0       	ldi	r25, 0x00	; 0
playRickRoll():
    19fc:	e1 11       	cpse	r30, r1
    19fe:	02 c0       	rjmp	.+4      	; 0x1a04 <main+0x928>
main():
    1a00:	82 ec       	ldi	r24, 0xC2	; 194
    1a02:	91 e0       	ldi	r25, 0x01	; 1
playRickRoll():
    1a04:	53 d9       	rcall	.-3418   	; 0xcac <morseFlash(unsigned int)>
main():
    1a06:	eb 2d       	mov	r30, r11
    1a08:	ed cf       	rjmp	.-38     	; 0x19e4 <main+0x908>
handleWakeButtonPress():
/home/wlf-solar/Documents/bsides-leeds-2026-badge/firmware/firmware.ino:1232
      seedGameRandom();
    }

    switch (pressedMask) {
      case 0:
        ++animationMode;
    1a0a:	23 94       	inc	r2
    1a0c:	8e cf       	rjmp	.-228    	; 0x192a <main+0x84e>
enableRebootOnButton():
/home/wlf-solar/Documents/bsides-leeds-2026-badge/firmware/firmware.ino:194
  RTC.CLKSEL = RTC_CLKSEL_INT1K_gc;
}

void enableRebootOnButton()
{
  PORTA.PIN3CTRL = PORT_PULLUPEN_bm | PORT_ISC_LEVEL_gc;
    1a0e:	8d e0       	ldi	r24, 0x0D	; 13
    1a10:	80 93 13 04 	sts	0x0413, r24	; 0x800413 <digital_pin_to_bit_mask+0x7f6427>
/home/wlf-solar/Documents/bsides-leeds-2026-badge/firmware/firmware.ino:195
  rebootOnButtonPress = true;
    1a14:	f0 92 cf 3e 	sts	0x3ECF, r15	; 0x803ecf <rebootOnButtonPress>
main():
/home/wlf-solar/Documents/bsides-leeds-2026-badge/firmware/firmware.ino:421
}

bool playStopTheLight()
{
  enableRebootOnButton();
  for (uint8_t intervalMs = 200; intervalMs > 50; intervalMs -= 20) {
    1a18:	68 ec       	ldi	r22, 0xC8	; 200
    1a1a:	6a 8b       	std	Y+18, r22	; 0x12
randomEight():
/home/wlf-solar/Documents/bsides-leeds-2026-badge/firmware/firmware.ino:110
  return value;
}

uint8_t randomEight()
{
  return nextRandomByte() & 0x07;
    1a1c:	a1 d7       	rcall	.+3906   	; 0x2960 <__TEXT_REGION_LENGTH__+0x960>
    1a1e:	87 70       	andi	r24, 0x07	; 7
    1a20:	98 2e       	mov	r9, r24
    1a22:	c8 2e       	mov	r12, r24
    1a24:	d1 2c       	mov	r13, r1
setRightEyeLed():
/home/wlf-solar/Documents/bsides-leeds-2026-badge/firmware/firmware.ino:300
  setLeftEye(red, green, blue, 9);
}

void setRightEyeLed(uint8_t ledIndex, uint8_t red, uint8_t green, uint8_t blue)
{
  ledStrip.setPixelColor(ledIndex == 0 ? 17 : ledIndex + 8, red, green, blue);
    1a26:	56 01       	movw	r10, r12
    1a28:	88 e0       	ldi	r24, 0x08	; 8
    1a2a:	a8 0e       	add	r10, r24
    1a2c:	b1 1c       	adc	r11, r1
    1a2e:	91 10       	cpse	r9, r1
    1a30:	03 c0       	rjmp	.+6      	; 0x1a38 <main+0x95c>
    1a32:	a1 e1       	ldi	r26, 0x11	; 17
    1a34:	aa 2e       	mov	r10, r26
    1a36:	b1 2c       	mov	r11, r1
    1a38:	f7 e0       	ldi	r31, 0x07	; 7
    1a3a:	3f 2e       	mov	r3, r31
    1a3c:	f1 2c       	mov	r15, r1
    1a3e:	e1 2c       	mov	r14, r1
    1a40:	4e 2c       	mov	r4, r14
playStopTheLightLevel():
/home/wlf-solar/Documents/bsides-leeds-2026-badge/firmware/firmware.ino:395
{
  const uint8_t targetLed = randomEight();

  for (uint8_t round = 0; round < 7; ++round) {
    for (uint8_t ledIndex = 0; ledIndex < 9; ++ledIndex) {
      setAllLeds(COLOR_OFF);
    1a42:	40 e0       	ldi	r20, 0x00	; 0
    1a44:	88 2d       	mov	r24, r8
    1a46:	b3 01       	movw	r22, r6
    1a48:	ac d6       	rcall	.+3416   	; 0x27a2 <__TEXT_REGION_LENGTH__+0x7a2>
/home/wlf-solar/Documents/bsides-leeds-2026-badge/firmware/firmware.ino:396
      ledStrip.setPixelColor(targetLed, 0, 30, 0);
    1a4a:	20 e0       	ldi	r18, 0x00	; 0
    1a4c:	4e e1       	ldi	r20, 0x1E	; 30
    1a4e:	60 e0       	ldi	r22, 0x00	; 0
    1a50:	c6 01       	movw	r24, r12
    1a52:	76 d3       	rcall	.+1772   	; 0x2140 <__TEXT_REGION_LENGTH__+0x140>
setRightEyeLed():
/home/wlf-solar/Documents/bsides-leeds-2026-badge/firmware/firmware.ino:300
  setLeftEye(red, green, blue, 9);
}

void setRightEyeLed(uint8_t ledIndex, uint8_t red, uint8_t green, uint8_t blue)
{
  ledStrip.setPixelColor(ledIndex == 0 ? 17 : ledIndex + 8, red, green, blue);
    1a54:	20 e0       	ldi	r18, 0x00	; 0
    1a56:	4e e1       	ldi	r20, 0x1E	; 30
    1a58:	60 e0       	ldi	r22, 0x00	; 0
    1a5a:	c5 01       	movw	r24, r10
    1a5c:	71 d3       	rcall	.+1762   	; 0x2140 <__TEXT_REGION_LENGTH__+0x140>
playStopTheLightLevel():
/home/wlf-solar/Documents/bsides-leeds-2026-badge/firmware/firmware.ino:398
  for (uint8_t round = 0; round < 7; ++round) {
    for (uint8_t ledIndex = 0; ledIndex < 9; ++ledIndex) {
      setAllLeds(COLOR_OFF);
      ledStrip.setPixelColor(targetLed, 0, 30, 0);
      setRightEyeLed(targetLed, 0, 30, 0);
      ledStrip.setPixelColor(ledIndex, 30, 0, 0);
    1a5e:	20 e0       	ldi	r18, 0x00	; 0
    1a60:	40 e0       	ldi	r20, 0x00	; 0
    1a62:	6e e1       	ldi	r22, 0x1E	; 30
    1a64:	c7 01       	movw	r24, r14
    1a66:	6c d3       	rcall	.+1752   	; 0x2140 <__TEXT_REGION_LENGTH__+0x140>
    1a68:	c7 01       	movw	r24, r14
    1a6a:	08 96       	adiw	r24, 0x08	; 8
setRightEyeLed():
/home/wlf-solar/Documents/bsides-leeds-2026-badge/firmware/firmware.ino:300
  setLeftEye(red, green, blue, 9);
}

void setRightEyeLed(uint8_t ledIndex, uint8_t red, uint8_t green, uint8_t blue)
{
  ledStrip.setPixelColor(ledIndex == 0 ? 17 : ledIndex + 8, red, green, blue);
    1a6c:	e1 10       	cpse	r14, r1
    1a6e:	02 c0       	rjmp	.+4      	; 0x1a74 <main+0x998>
main():
    1a70:	81 e1       	ldi	r24, 0x11	; 17
    1a72:	90 e0       	ldi	r25, 0x00	; 0
setRightEyeLed():
    1a74:	20 e0       	ldi	r18, 0x00	; 0
    1a76:	40 e0       	ldi	r20, 0x00	; 0
    1a78:	6e e1       	ldi	r22, 0x1E	; 30
    1a7a:	62 d3       	rcall	.+1732   	; 0x2140 <__TEXT_REGION_LENGTH__+0x140>
playStopTheLightLevel():
/home/wlf-solar/Documents/bsides-leeds-2026-badge/firmware/firmware.ino:400
      setAllLeds(COLOR_OFF);
      ledStrip.setPixelColor(targetLed, 0, 30, 0);
      setRightEyeLed(targetLed, 0, 30, 0);
      ledStrip.setPixelColor(ledIndex, 30, 0, 0);
      setRightEyeLed(ledIndex, 30, 0, 0);
      ledStrip.show();
    1a7c:	1d d4       	rcall	.+2106   	; 0x22b8 <__TEXT_REGION_LENGTH__+0x2b8>
main():
/home/wlf-solar/Documents/bsides-leeds-2026-badge/firmware/firmware.ino:402

      uint8_t elapsedMs = 0;
    1a7e:	51 2c       	mov	r5, r1
playStopTheLightLevel():
/home/wlf-solar/Documents/bsides-leeds-2026-badge/firmware/firmware.ino:404
      while (elapsedMs < iterationIntervalMs) {
        elapsedMs += 5;
    1a80:	95 e0       	ldi	r25, 0x05	; 5
    1a82:	59 0e       	add	r5, r25
isAnyPadPressed():
/home/wlf-solar/Documents/bsides-leeds-2026-badge/firmware/firmware.ino:354
  }
}

bool isAnyPadPressed()
{
  return getPressedTouchMask() != 0;
    1a84:	12 d7       	rcall	.+3620   	; 0x28aa <__TEXT_REGION_LENGTH__+0x8aa>
playStopTheLightLevel():
/home/wlf-solar/Documents/bsides-leeds-2026-badge/firmware/firmware.ino:406

      uint8_t elapsedMs = 0;
      while (elapsedMs < iterationIntervalMs) {
        elapsedMs += 5;

        if (isAnyPadPressed()) {
    1a86:	88 23       	and	r24, r24
    1a88:	39 f0       	breq	.+14     	; 0x1a98 <main+0x9bc>
playStopTheLight():
/home/wlf-solar/Documents/bsides-leeds-2026-badge/firmware/firmware.ino:422

bool playStopTheLight()
{
  enableRebootOnButton();
  for (uint8_t intervalMs = 200; intervalMs > 50; intervalMs -= 20) {
    if (!playStopTheLightLevel(intervalMs)) {
    1a8a:	49 14       	cp	r4, r9
    1a8c:	c9 f0       	breq	.+50     	; 0x1ac0 <main+0x9e4>
showFailure():
/home/wlf-solar/Documents/bsides-leeds-2026-badge/firmware/firmware.ino:340
  delay(50);
}

void showFailure()
{
  flashNotification(COLOR_RED);
    1a8e:	69 8d       	ldd	r22, Y+25	; 0x19
    1a90:	7a 8d       	ldd	r23, Y+26	; 0x1a
    1a92:	8b 8d       	ldd	r24, Y+27	; 0x1b
    1a94:	26 d9       	rcall	.-3508   	; 0xce2 <flashNotification(RgbColor)>
    1a96:	2a c0       	rjmp	.+84     	; 0x1aec <main+0xa10>
_delay_ms():
/home/wlf-solar/.arduino15/packages/DxCore/tools/avr-gcc/7.3.0-atmel3.6.1-azduino7b1/avr/include/util/delay.h:187
    1a98:	a7 ea       	ldi	r26, 0xA7	; 167
    1a9a:	b1 e6       	ldi	r27, 0x61	; 97
    1a9c:	11 97       	sbiw	r26, 0x01	; 1
    1a9e:	f1 f7       	brne	.-4      	; 0x1a9c <main+0x9c0>
    1aa0:	00 c0       	rjmp	.+0      	; 0x1aa2 <main+0x9c6>
    1aa2:	00 00       	nop
playStopTheLightLevel():
/home/wlf-solar/Documents/bsides-leeds-2026-badge/firmware/firmware.ino:403
      ledStrip.setPixelColor(ledIndex, 30, 0, 0);
      setRightEyeLed(ledIndex, 30, 0, 0);
      ledStrip.show();

      uint8_t elapsedMs = 0;
      while (elapsedMs < iterationIntervalMs) {
    1aa4:	ba 89       	ldd	r27, Y+18	; 0x12
    1aa6:	5b 16       	cp	r5, r27
    1aa8:	58 f3       	brcs	.-42     	; 0x1a80 <main+0x9a4>
    1aaa:	ef ef       	ldi	r30, 0xFF	; 255
    1aac:	ee 1a       	sub	r14, r30
    1aae:	fe 0a       	sbc	r15, r30
/home/wlf-solar/Documents/bsides-leeds-2026-badge/firmware/firmware.ino:394
bool playStopTheLightLevel(uint8_t iterationIntervalMs)
{
  const uint8_t targetLed = randomEight();

  for (uint8_t round = 0; round < 7; ++round) {
    for (uint8_t ledIndex = 0; ledIndex < 9; ++ledIndex) {
    1ab0:	f9 e0       	ldi	r31, 0x09	; 9
    1ab2:	ef 16       	cp	r14, r31
    1ab4:	f1 04       	cpc	r15, r1
    1ab6:	21 f6       	brne	.-120    	; 0x1a40 <main+0x964>
    1ab8:	3a 94       	dec	r3
/home/wlf-solar/Documents/bsides-leeds-2026-badge/firmware/firmware.ino:393

bool playStopTheLightLevel(uint8_t iterationIntervalMs)
{
  const uint8_t targetLed = randomEight();

  for (uint8_t round = 0; round < 7; ++round) {
    1aba:	31 10       	cpse	r3, r1
    1abc:	bf cf       	rjmp	.-130    	; 0x1a3c <main+0x960>
    1abe:	e7 cf       	rjmp	.-50     	; 0x1a8e <main+0x9b2>
isAnyPadPressed():
/home/wlf-solar/Documents/bsides-leeds-2026-badge/firmware/firmware.ino:354
  }
}

bool isAnyPadPressed()
{
  return getPressedTouchMask() != 0;
    1ac0:	f4 d6       	rcall	.+3560   	; 0x28aa <__TEXT_REGION_LENGTH__+0x8aa>
playStopTheLight():
/home/wlf-solar/Documents/bsides-leeds-2026-badge/firmware/firmware.ino:428
      showFailure();
      disableRebootOnButton();
      return false;
    }

    while (isAnyPadPressed()) {
    1ac2:	88 23       	and	r24, r24
    1ac4:	39 f0       	breq	.+14     	; 0x1ad4 <main+0x9f8>
_delay_ms():
/home/wlf-solar/.arduino15/packages/DxCore/tools/avr-gcc/7.3.0-atmel3.6.1-azduino7b1/avr/include/util/delay.h:187
    1ac6:	87 ea       	ldi	r24, 0xA7	; 167
    1ac8:	91 e6       	ldi	r25, 0x61	; 97
    1aca:	01 97       	sbiw	r24, 0x01	; 1
    1acc:	f1 f7       	brne	.-4      	; 0x1aca <main+0x9ee>
    1ace:	00 c0       	rjmp	.+0      	; 0x1ad0 <main+0x9f4>
    1ad0:	00 00       	nop
    1ad2:	f6 cf       	rjmp	.-20     	; 0x1ac0 <main+0x9e4>
playStopTheLight():
/home/wlf-solar/Documents/bsides-leeds-2026-badge/firmware/firmware.ino:421
}

bool playStopTheLight()
{
  enableRebootOnButton();
  for (uint8_t intervalMs = 200; intervalMs > 50; intervalMs -= 20) {
    1ad4:	9a 89       	ldd	r25, Y+18	; 0x12
    1ad6:	94 51       	subi	r25, 0x14	; 20
    1ad8:	9a 8b       	std	Y+18, r25	; 0x12
    1ada:	98 32       	cpi	r25, 0x28	; 40
    1adc:	09 f0       	breq	.+2      	; 0x1ae0 <main+0xa04>
    1ade:	9e cf       	rjmp	.-196    	; 0x1a1c <main+0x940>
/home/wlf-solar/Documents/bsides-leeds-2026-badge/firmware/firmware.ino:433
    while (isAnyPadPressed()) {
      delay(5);
    }
  }

  state = state & B11111110;
    1ae0:	80 91 d0 3e 	lds	r24, 0x3ED0	; 0x803ed0 <state>
    1ae4:	8e 7f       	andi	r24, 0xFE	; 254
    1ae6:	80 93 d0 3e 	sts	0x3ED0, r24	; 0x803ed0 <state>
/home/wlf-solar/Documents/bsides-leeds-2026-badge/firmware/firmware.ino:434
  showSuccess();
    1aea:	31 d9       	rcall	.-3486   	; 0xd4e <showSuccess()>
disableRebootOnButton():
/home/wlf-solar/Documents/bsides-leeds-2026-badge/firmware/firmware.ino:200
  rebootOnButtonPress = true;
}

void disableRebootOnButton()
{
  PORTA.PIN3CTRL = PORT_PULLUPEN_bm;
    1aec:	88 e0       	ldi	r24, 0x08	; 8
    1aee:	80 93 13 04 	sts	0x0413, r24	; 0x800413 <digital_pin_to_bit_mask+0x7f6427>
/home/wlf-solar/Documents/bsides-leeds-2026-badge/firmware/firmware.ino:201
  rebootOnButtonPress = false;
    1af2:	10 92 cf 3e 	sts	0x3ECF, r1	; 0x803ecf <rebootOnButtonPress>
    1af6:	19 cf       	rjmp	.-462    	; 0x192a <main+0x84e>
enableRebootOnButton():
/home/wlf-solar/Documents/bsides-leeds-2026-badge/firmware/firmware.ino:194
  RTC.CLKSEL = RTC_CLKSEL_INT1K_gc;
}

void enableRebootOnButton()
{
  PORTA.PIN3CTRL = PORT_PULLUPEN_bm | PORT_ISC_LEVEL_gc;
    1af8:	8d e0       	ldi	r24, 0x0D	; 13
    1afa:	80 93 13 04 	sts	0x0413, r24	; 0x800413 <digital_pin_to_bit_mask+0x7f6427>
/home/wlf-solar/Documents/bsides-leeds-2026-badge/firmware/firmware.ino:195
  rebootOnButtonPress = true;
    1afe:	81 e0       	ldi	r24, 0x01	; 1
    1b00:	80 93 cf 3e 	sts	0x3ECF, r24	; 0x803ecf <rebootOnButtonPress>
playFindTheSequence():
/home/wlf-solar/Documents/bsides-leeds-2026-badge/firmware/firmware.ino:613

bool playFindTheSequence(uint8_t startingLives = FIND_SEQUENCE_STARTING_LIVES)
{
  enableRebootOnButton();
  uint8_t sequence[FIND_SEQUENCE_LENGTH];
  createRandomSequence(sequence, FIND_SEQUENCE_LENGTH);
    1b04:	67 e0       	ldi	r22, 0x07	; 7
    1b06:	ce 01       	movw	r24, r28
    1b08:	01 96       	adiw	r24, 0x01	; 1
    1b0a:	3d d7       	rcall	.+3706   	; 0x2986 <__TEXT_REGION_LENGTH__+0x986>
showFindSequencePreview():
/home/wlf-solar/Documents/bsides-leeds-2026-badge/firmware/firmware.ino:582
  ledStrip.show();
}

void showFindSequencePreview(const uint8_t sequence[])
{
  setAllLeds(COLOR_OFF);
    1b0c:	40 e0       	ldi	r20, 0x00	; 0
    1b0e:	88 2d       	mov	r24, r8
    1b10:	b3 01       	movw	r22, r6
    1b12:	47 d6       	rcall	.+3214   	; 0x27a2 <__TEXT_REGION_LENGTH__+0x7a2>
    1b14:	de 01       	movw	r26, r28
    1b16:	11 96       	adiw	r26, 0x01	; 1
    1b18:	7d 01       	movw	r14, r26
main():
/home/wlf-solar/Documents/bsides-leeds-2026-badge/firmware/firmware.ino:584

  for (uint8_t sequenceIndex = 0; sequenceIndex < FIND_SEQUENCE_LENGTH; ++sequenceIndex) {
    1b1a:	d1 2c       	mov	r13, r1
showFindSequencePreview():
/home/wlf-solar/Documents/bsides-leeds-2026-badge/firmware/firmware.ino:585
    setSequenceSlotColor(sequenceIndex, sequence[sequenceIndex]);
    1b1c:	f7 01       	movw	r30, r14
    1b1e:	61 91       	ld	r22, Z+
    1b20:	7f 01       	movw	r14, r30
    1b22:	8d 2d       	mov	r24, r13
    1b24:	0f d6       	rcall	.+3102   	; 0x2744 <__TEXT_REGION_LENGTH__+0x744>
/home/wlf-solar/Documents/bsides-leeds-2026-badge/firmware/firmware.ino:584

void showFindSequencePreview(const uint8_t sequence[])
{
  setAllLeds(COLOR_OFF);

  for (uint8_t sequenceIndex = 0; sequenceIndex < FIND_SEQUENCE_LENGTH; ++sequenceIndex) {
    1b26:	d3 94       	inc	r13
    1b28:	f7 e0       	ldi	r31, 0x07	; 7
    1b2a:	df 12       	cpse	r13, r31
    1b2c:	f7 cf       	rjmp	.-18     	; 0x1b1c <main+0xa40>
/home/wlf-solar/Documents/bsides-leeds-2026-badge/firmware/firmware.ino:588
    setSequenceSlotColor(sequenceIndex, sequence[sequenceIndex]);
  }

  ledStrip.show();
    1b2e:	c4 d3       	rcall	.+1928   	; 0x22b8 <__TEXT_REGION_LENGTH__+0x2b8>
delay():
    1b30:	68 eb       	ldi	r22, 0xB8	; 184
    1b32:	7b e0       	ldi	r23, 0x0B	; 11
    1b34:	80 e0       	ldi	r24, 0x00	; 0
    1b36:	90 e0       	ldi	r25, 0x00	; 0
    1b38:	49 d3       	rcall	.+1682   	; 0x21cc <__TEXT_REGION_LENGTH__+0x1cc>
showFindSequencePreview():
/home/wlf-solar/Documents/bsides-leeds-2026-badge/firmware/firmware.ino:590
  delay(FIND_SEQUENCE_PREVIEW_MS);
  showFindSequenceProgress(sequence, 0);
    1b3a:	60 e0       	ldi	r22, 0x00	; 0
    1b3c:	ce 01       	movw	r24, r28
    1b3e:	01 96       	adiw	r24, 0x01	; 1
    1b40:	92 d6       	rcall	.+3364   	; 0x2866 <__TEXT_REGION_LENGTH__+0x866>
main():
/home/wlf-solar/Documents/bsides-leeds-2026-badge/firmware/firmware.ino:616
  enableRebootOnButton();
  uint8_t sequence[FIND_SEQUENCE_LENGTH];
  createRandomSequence(sequence, FIND_SEQUENCE_LENGTH);

  uint8_t livesRemaining = startingLives;
  uint8_t foundLength = 0;
    1b42:	f1 2c       	mov	r15, r1
/home/wlf-solar/Documents/bsides-leeds-2026-badge/firmware/firmware.ino:615
{
  enableRebootOnButton();
  uint8_t sequence[FIND_SEQUENCE_LENGTH];
  createRandomSequence(sequence, FIND_SEQUENCE_LENGTH);

  uint8_t livesRemaining = startingLives;
    1b44:	ea e0       	ldi	r30, 0x0A	; 10
    1b46:	ce 2e       	mov	r12, r30
waitForColorGuess():
/home/wlf-solar/Documents/bsides-leeds-2026-badge/firmware/firmware.ino:595
  showFindSequenceProgress(sequence, 0);
}

bool waitForColorGuess(uint8_t &colorIndex)
{
  uint8_t pressedMask = getPressedTouchMask();
    1b48:	b0 d6       	rcall	.+3424   	; 0x28aa <__TEXT_REGION_LENGTH__+0x8aa>
    1b4a:	e8 2e       	mov	r14, r24
/home/wlf-solar/Documents/bsides-leeds-2026-badge/firmware/firmware.ino:597

  while (pressedMask == 0) {
    1b4c:	e1 10       	cpse	r14, r1
    1b4e:	09 c0       	rjmp	.+18     	; 0x1b62 <main+0xa86>
/home/wlf-solar/Documents/bsides-leeds-2026-badge/firmware/firmware.ino:598
    pressedMask = getPressedTouchMask();
    1b50:	ac d6       	rcall	.+3416   	; 0x28aa <__TEXT_REGION_LENGTH__+0x8aa>
    1b52:	e8 2e       	mov	r14, r24
_delay_ms():
/home/wlf-solar/.arduino15/packages/DxCore/tools/avr-gcc/7.3.0-atmel3.6.1-azduino7b1/avr/include/util/delay.h:187
    1b54:	8f e4       	ldi	r24, 0x4F	; 79
    1b56:	93 ec       	ldi	r25, 0xC3	; 195
    1b58:	01 97       	sbiw	r24, 0x01	; 1
    1b5a:	f1 f7       	brne	.-4      	; 0x1b58 <main+0xa7c>
    1b5c:	00 c0       	rjmp	.+0      	; 0x1b5e <main+0xa82>
    1b5e:	00 00       	nop
    1b60:	f5 cf       	rjmp	.-22     	; 0x1b4c <main+0xa70>
waitForColorGuess():
/home/wlf-solar/Documents/bsides-leeds-2026-badge/firmware/firmware.ino:602
    delay(TOUCH_POLL_MS);
  }

  showTouchedPads();
    1b62:	bb d6       	rcall	.+3446   	; 0x28da <__TEXT_REGION_LENGTH__+0x8da>
pressedMaskToColorIndex():
/home/wlf-solar/Documents/bsides-leeds-2026-badge/firmware/firmware.ino:543
  return true;
}

bool pressedMaskToColorIndex(uint8_t pressedMask, uint8_t &colorIndex)
{
  switch (pressedMask) {
    1b64:	94 e0       	ldi	r25, 0x04	; 4
    1b66:	e9 16       	cp	r14, r25
    1b68:	e9 f0       	breq	.+58     	; 0x1ba4 <main+0xac8>
    1b6a:	9e 15       	cp	r25, r14
    1b6c:	90 f0       	brcs	.+36     	; 0x1b92 <main+0xab6>
    1b6e:	a1 e0       	ldi	r26, 0x01	; 1
    1b70:	ea 16       	cp	r14, r26
    1b72:	e9 f0       	breq	.+58     	; 0x1bae <main+0xad2>
    1b74:	b2 e0       	ldi	r27, 0x02	; 2
    1b76:	eb 16       	cp	r14, r27
    1b78:	e9 f0       	breq	.+58     	; 0x1bb4 <main+0xad8>
playFindTheSequence():
/home/wlf-solar/Documents/bsides-leeds-2026-badge/firmware/firmware.ino:620
  uint8_t livesRemaining = startingLives;
  uint8_t foundLength = 0;
  showFindSequencePreview(sequence);

  while (foundLength < FIND_SEQUENCE_LENGTH && livesRemaining > 0) {
    uint8_t guessedColor = 0;
    1b7a:	e1 2c       	mov	r14, r1
main():
/home/wlf-solar/Documents/bsides-leeds-2026-badge/firmware/firmware.ino:557
    case LEFT_BLUE_MASK:
    case RIGHT_BLUE_MASK:
      colorIndex = 2;
      return true;
    default:
      return false;
    1b7c:	d1 2c       	mov	r13, r1
waitForAllTouchPadsReleased():
/home/wlf-solar/Documents/bsides-leeds-2026-badge/firmware/firmware.ino:359
  return getPressedTouchMask() != 0;
}

void waitForAllTouchPadsReleased()
{
  while (getPressedTouchMask() != 0) {
    1b7e:	95 d6       	rcall	.+3370   	; 0x28aa <__TEXT_REGION_LENGTH__+0x8aa>
    1b80:	88 23       	and	r24, r24
    1b82:	d1 f0       	breq	.+52     	; 0x1bb8 <main+0xadc>
_delay_ms():
/home/wlf-solar/.arduino15/packages/DxCore/tools/avr-gcc/7.3.0-atmel3.6.1-azduino7b1/avr/include/util/delay.h:187
    1b84:	8f e4       	ldi	r24, 0x4F	; 79
    1b86:	93 ec       	ldi	r25, 0xC3	; 195
    1b88:	01 97       	sbiw	r24, 0x01	; 1
    1b8a:	f1 f7       	brne	.-4      	; 0x1b88 <main+0xaac>
    1b8c:	00 c0       	rjmp	.+0      	; 0x1b8e <main+0xab2>
    1b8e:	00 00       	nop
    1b90:	f6 cf       	rjmp	.-20     	; 0x1b7e <main+0xaa2>
pressedMaskToColorIndex():
/home/wlf-solar/Documents/bsides-leeds-2026-badge/firmware/firmware.ino:543
  return true;
}

bool pressedMaskToColorIndex(uint8_t pressedMask, uint8_t &colorIndex)
{
  switch (pressedMask) {
    1b92:	e0 e1       	ldi	r30, 0x10	; 16
    1b94:	ee 16       	cp	r14, r30
    1b96:	71 f0       	breq	.+28     	; 0x1bb4 <main+0xad8>
    1b98:	f0 e2       	ldi	r31, 0x20	; 32
    1b9a:	ef 16       	cp	r14, r31
    1b9c:	41 f0       	breq	.+16     	; 0x1bae <main+0xad2>
    1b9e:	28 e0       	ldi	r18, 0x08	; 8
    1ba0:	e2 12       	cpse	r14, r18
    1ba2:	eb cf       	rjmp	.-42     	; 0x1b7a <main+0xa9e>
/home/wlf-solar/Documents/bsides-leeds-2026-badge/firmware/firmware.ino:550
    case RIGHT_RED_MASK:
      colorIndex = 0;
      return true;
    case LEFT_GREEN_MASK:
    case RIGHT_GREEN_MASK:
      colorIndex = 1;
    1ba4:	ee 24       	eor	r14, r14
    1ba6:	e3 94       	inc	r14
main():
/home/wlf-solar/Documents/bsides-leeds-2026-badge/firmware/firmware.ino:547
{
  switch (pressedMask) {
    case LEFT_RED_MASK:
    case RIGHT_RED_MASK:
      colorIndex = 0;
      return true;
    1ba8:	dd 24       	eor	r13, r13
    1baa:	d3 94       	inc	r13
    1bac:	e8 cf       	rjmp	.-48     	; 0x1b7e <main+0xaa2>
pressedMaskToColorIndex():
/home/wlf-solar/Documents/bsides-leeds-2026-badge/firmware/firmware.ino:554
    case RIGHT_GREEN_MASK:
      colorIndex = 1;
      return true;
    case LEFT_BLUE_MASK:
    case RIGHT_BLUE_MASK:
      colorIndex = 2;
    1bae:	72 e0       	ldi	r23, 0x02	; 2
    1bb0:	e7 2e       	mov	r14, r23
    1bb2:	fa cf       	rjmp	.-12     	; 0x1ba8 <main+0xacc>
/home/wlf-solar/Documents/bsides-leeds-2026-badge/firmware/firmware.ino:546
bool pressedMaskToColorIndex(uint8_t pressedMask, uint8_t &colorIndex)
{
  switch (pressedMask) {
    case LEFT_RED_MASK:
    case RIGHT_RED_MASK:
      colorIndex = 0;
    1bb4:	e1 2c       	mov	r14, r1
    1bb6:	f8 cf       	rjmp	.-16     	; 0x1ba8 <main+0xacc>
playFindTheSequence():
/home/wlf-solar/Documents/bsides-leeds-2026-badge/firmware/firmware.ino:623

  while (foundLength < FIND_SEQUENCE_LENGTH && livesRemaining > 0) {
    uint8_t guessedColor = 0;
    const bool hasColorGuess = waitForColorGuess(guessedColor);

    if (hasColorGuess && guessedColor == sequence[foundLength]) {
    1bb8:	dd 20       	and	r13, r13
    1bba:	d1 f0       	breq	.+52     	; 0x1bf0 <main+0xb14>
    1bbc:	e1 e0       	ldi	r30, 0x01	; 1
    1bbe:	f0 e0       	ldi	r31, 0x00	; 0
    1bc0:	ec 0f       	add	r30, r28
    1bc2:	fd 1f       	adc	r31, r29
    1bc4:	ef 0d       	add	r30, r15
    1bc6:	f1 1d       	adc	r31, r1
    1bc8:	80 81       	ld	r24, Z
    1bca:	8e 11       	cpse	r24, r14
    1bcc:	11 c0       	rjmp	.+34     	; 0x1bf0 <main+0xb14>
/home/wlf-solar/Documents/bsides-leeds-2026-badge/firmware/firmware.ino:624
      ++foundLength;
    1bce:	f3 94       	inc	r15
/home/wlf-solar/Documents/bsides-leeds-2026-badge/firmware/firmware.ino:625
      showFindSequenceProgress(sequence, foundLength);
    1bd0:	6f 2d       	mov	r22, r15
    1bd2:	ce 01       	movw	r24, r28
    1bd4:	01 96       	adiw	r24, 0x01	; 1
    1bd6:	47 d6       	rcall	.+3214   	; 0x2866 <__TEXT_REGION_LENGTH__+0x866>
delay():
    1bd8:	64 ef       	ldi	r22, 0xF4	; 244
    1bda:	71 e0       	ldi	r23, 0x01	; 1
    1bdc:	80 e0       	ldi	r24, 0x00	; 0
    1bde:	90 e0       	ldi	r25, 0x00	; 0
    1be0:	f5 d2       	rcall	.+1514   	; 0x21cc <__TEXT_REGION_LENGTH__+0x1cc>
playFindTheSequence():
/home/wlf-solar/Documents/bsides-leeds-2026-badge/firmware/firmware.ino:619

  uint8_t livesRemaining = startingLives;
  uint8_t foundLength = 0;
  showFindSequencePreview(sequence);

  while (foundLength < FIND_SEQUENCE_LENGTH && livesRemaining > 0) {
    1be2:	97 e0       	ldi	r25, 0x07	; 7
    1be4:	f9 12       	cpse	r15, r25
    1be6:	b0 cf       	rjmp	.-160    	; 0x1b48 <main+0xa6c>
/home/wlf-solar/Documents/bsides-leeds-2026-badge/firmware/firmware.ino:639
  }

  const bool wonGame = foundLength == FIND_SEQUENCE_LENGTH;

  if (wonGame) {
    state = state & B11111011;
    1be8:	80 91 d0 3e 	lds	r24, 0x3ED0	; 0x803ed0 <state>
    1bec:	8b 7f       	andi	r24, 0xFB	; 251
    1bee:	7b cf       	rjmp	.-266    	; 0x1ae6 <main+0xa0a>
/home/wlf-solar/Documents/bsides-leeds-2026-badge/firmware/firmware.ino:630
      showFindSequenceProgress(sequence, foundLength);
      delay(500);
      continue;
    }

    --livesRemaining;
    1bf0:	ca 94       	dec	r12
showFailure():
/home/wlf-solar/Documents/bsides-leeds-2026-badge/firmware/firmware.ino:340
  delay(50);
}

void showFailure()
{
  flashNotification(COLOR_RED);
    1bf2:	6c 8d       	ldd	r22, Y+28	; 0x1c
    1bf4:	7d 8d       	ldd	r23, Y+29	; 0x1d
    1bf6:	8e 8d       	ldd	r24, Y+30	; 0x1e
    1bf8:	74 d8       	rcall	.-3864   	; 0xce2 <flashNotification(RgbColor)>
playFindTheSequence():
/home/wlf-solar/Documents/bsides-leeds-2026-badge/firmware/firmware.ino:633
    }

    --livesRemaining;
    foundLength = 0;
    showFailure();
    showFindSequenceProgress(sequence, foundLength);
    1bfa:	60 e0       	ldi	r22, 0x00	; 0
    1bfc:	ce 01       	movw	r24, r28
    1bfe:	01 96       	adiw	r24, 0x01	; 1
    1c00:	32 d6       	rcall	.+3172   	; 0x2866 <__TEXT_REGION_LENGTH__+0x866>
main():
/home/wlf-solar/Documents/bsides-leeds-2026-badge/firmware/firmware.ino:631
      delay(500);
      continue;
    }

    --livesRemaining;
    foundLength = 0;
    1c02:	f1 2c       	mov	r15, r1
playFindTheSequence():
/home/wlf-solar/Documents/bsides-leeds-2026-badge/firmware/firmware.ino:619

  uint8_t livesRemaining = startingLives;
  uint8_t foundLength = 0;
  showFindSequencePreview(sequence);

  while (foundLength < FIND_SEQUENCE_LENGTH && livesRemaining > 0) {
    1c04:	c1 10       	cpse	r12, r1
    1c06:	a0 cf       	rjmp	.-192    	; 0x1b48 <main+0xa6c>
    1c08:	71 cf       	rjmp	.-286    	; 0x1aec <main+0xa10>
enableRebootOnButton():
/home/wlf-solar/Documents/bsides-leeds-2026-badge/firmware/firmware.ino:194
  RTC.CLKSEL = RTC_CLKSEL_INT1K_gc;
}

void enableRebootOnButton()
{
  PORTA.PIN3CTRL = PORT_PULLUPEN_bm | PORT_ISC_LEVEL_gc;
    1c0a:	8d e0       	ldi	r24, 0x0D	; 13
    1c0c:	80 93 13 04 	sts	0x0413, r24	; 0x800413 <digital_pin_to_bit_mask+0x7f6427>
/home/wlf-solar/Documents/bsides-leeds-2026-badge/firmware/firmware.ino:195
  rebootOnButtonPress = true;
    1c10:	81 e0       	ldi	r24, 0x01	; 1
    1c12:	80 93 cf 3e 	sts	0x3ECF, r24	; 0x803ecf <rebootOnButtonPress>
playFollowTheSequence():
/home/wlf-solar/Documents/bsides-leeds-2026-badge/firmware/firmware.ino:499

bool playFollowTheSequence()
{
  enableRebootOnButton();
  uint8_t sequence[NUM_SEQUENCE_LEVELS];
  createRandomSequence(sequence, NUM_SEQUENCE_LEVELS);
    1c16:	6a e0       	ldi	r22, 0x0A	; 10
    1c18:	de 01       	movw	r26, r28
    1c1a:	11 96       	adiw	r26, 0x01	; 1
    1c1c:	7d 01       	movw	r14, r26
    1c1e:	cd 01       	movw	r24, r26
    1c20:	b2 d6       	rcall	.+3428   	; 0x2986 <__TEXT_REGION_LENGTH__+0x986>
main():
/home/wlf-solar/Documents/bsides-leeds-2026-badge/firmware/firmware.ino:501

  for (uint8_t level = MEMORY_START_LEVEL; level < NUM_SEQUENCE_LEVELS; ++level) {
    1c22:	63 e0       	ldi	r22, 0x03	; 3
    1c24:	96 2e       	mov	r9, r22
    1c26:	5e 2c       	mov	r5, r14
    1c28:	57 01       	movw	r10, r14
    1c2a:	67 01       	movw	r12, r14
showSequenceColor():
/home/wlf-solar/Documents/bsides-leeds-2026-badge/firmware/firmware.ino:457
  }
}

void showSequenceColor(uint8_t colorIndex)
{
  setAllLeds(colorForIndex(colorIndex));
    1c2c:	f6 01       	movw	r30, r12
    1c2e:	81 91       	ld	r24, Z+
    1c30:	6f 01       	movw	r12, r30
    1c32:	76 d5       	rcall	.+2796   	; 0x2720 <__TEXT_REGION_LENGTH__+0x720>
    1c34:	40 e0       	ldi	r20, 0x00	; 0
    1c36:	b5 d5       	rcall	.+2922   	; 0x27a2 <__TEXT_REGION_LENGTH__+0x7a2>
playFollowTheSequence():
/home/wlf-solar/Documents/bsides-leeds-2026-badge/firmware/firmware.ino:504
  createRandomSequence(sequence, NUM_SEQUENCE_LEVELS);

  for (uint8_t level = MEMORY_START_LEVEL; level < NUM_SEQUENCE_LEVELS; ++level) {
    for (uint8_t sequenceIndex = 0; sequenceIndex < level; ++sequenceIndex) {
      showSequenceColor(sequence[sequenceIndex]);
      ledStrip.show();
    1c38:	3f d3       	rcall	.+1662   	; 0x22b8 <__TEXT_REGION_LENGTH__+0x2b8>
delay():
    1c3a:	60 e9       	ldi	r22, 0x90	; 144
    1c3c:	71 e0       	ldi	r23, 0x01	; 1
    1c3e:	80 e0       	ldi	r24, 0x00	; 0
    1c40:	90 e0       	ldi	r25, 0x00	; 0
    1c42:	c4 d2       	rcall	.+1416   	; 0x21cc <__TEXT_REGION_LENGTH__+0x1cc>
playFollowTheSequence():
/home/wlf-solar/Documents/bsides-leeds-2026-badge/firmware/firmware.ino:506
      delay(400);
      setAllLeds(COLOR_OFF, true);
    1c44:	41 e0       	ldi	r20, 0x01	; 1
    1c46:	88 2d       	mov	r24, r8
    1c48:	b3 01       	movw	r22, r6
    1c4a:	ab d5       	rcall	.+2902   	; 0x27a2 <__TEXT_REGION_LENGTH__+0x7a2>
delay():
    1c4c:	68 ec       	ldi	r22, 0xC8	; 200
    1c4e:	70 e0       	ldi	r23, 0x00	; 0
    1c50:	80 e0       	ldi	r24, 0x00	; 0
    1c52:	90 e0       	ldi	r25, 0x00	; 0
    1c54:	bb d2       	rcall	.+1398   	; 0x21cc <__TEXT_REGION_LENGTH__+0x1cc>
playFollowTheSequence():
/home/wlf-solar/Documents/bsides-leeds-2026-badge/firmware/firmware.ino:502
  enableRebootOnButton();
  uint8_t sequence[NUM_SEQUENCE_LEVELS];
  createRandomSequence(sequence, NUM_SEQUENCE_LEVELS);

  for (uint8_t level = MEMORY_START_LEVEL; level < NUM_SEQUENCE_LEVELS; ++level) {
    for (uint8_t sequenceIndex = 0; sequenceIndex < level; ++sequenceIndex) {
    1c56:	8c 2d       	mov	r24, r12
    1c58:	8e 19       	sub	r24, r14
    1c5a:	89 15       	cp	r24, r9
    1c5c:	38 f3       	brcs	.-50     	; 0x1c2c <main+0xb50>
/home/wlf-solar/Documents/bsides-leeds-2026-badge/firmware/firmware.ino:511
      setAllLeds(COLOR_OFF, true);
      delay(200);
    }

    for (uint8_t sequenceIndex = 0; sequenceIndex < level; ++sequenceIndex) {
      uint8_t pressedMask = getPressedTouchMask();
    1c5e:	25 d6       	rcall	.+3146   	; 0x28aa <__TEXT_REGION_LENGTH__+0x8aa>
    1c60:	d8 2e       	mov	r13, r24
/home/wlf-solar/Documents/bsides-leeds-2026-badge/firmware/firmware.ino:513

      while (pressedMask == 0) {
    1c62:	d1 10       	cpse	r13, r1
    1c64:	09 c0       	rjmp	.+18     	; 0x1c78 <main+0xb9c>
/home/wlf-solar/Documents/bsides-leeds-2026-badge/firmware/firmware.ino:514
        pressedMask = getPressedTouchMask();
    1c66:	21 d6       	rcall	.+3138   	; 0x28aa <__TEXT_REGION_LENGTH__+0x8aa>
    1c68:	d8 2e       	mov	r13, r24
_delay_ms():
/home/wlf-solar/.arduino15/packages/DxCore/tools/avr-gcc/7.3.0-atmel3.6.1-azduino7b1/avr/include/util/delay.h:187
    1c6a:	8f e4       	ldi	r24, 0x4F	; 79
    1c6c:	93 ec       	ldi	r25, 0xC3	; 195
    1c6e:	01 97       	sbiw	r24, 0x01	; 1
    1c70:	f1 f7       	brne	.-4      	; 0x1c6e <main+0xb92>
    1c72:	00 c0       	rjmp	.+0      	; 0x1c74 <main+0xb98>
    1c74:	00 00       	nop
    1c76:	f5 cf       	rjmp	.-22     	; 0x1c62 <main+0xb86>
playFollowTheSequence():
/home/wlf-solar/Documents/bsides-leeds-2026-badge/firmware/firmware.ino:518
        delay(TOUCH_POLL_MS);
      }

      showTouchedPads();
    1c78:	30 d6       	rcall	.+3168   	; 0x28da <__TEXT_REGION_LENGTH__+0x8da>
isAnyPadPressed():
/home/wlf-solar/Documents/bsides-leeds-2026-badge/firmware/firmware.ino:354
  }
}

bool isAnyPadPressed()
{
  return getPressedTouchMask() != 0;
    1c7a:	17 d6       	rcall	.+3118   	; 0x28aa <__TEXT_REGION_LENGTH__+0x8aa>
playFollowTheSequence():
/home/wlf-solar/Documents/bsides-leeds-2026-badge/firmware/firmware.ino:520
        delay(TOUCH_POLL_MS);
      }

      showTouchedPads();

      while (isAnyPadPressed()) {
    1c7c:	88 23       	and	r24, r24
    1c7e:	39 f0       	breq	.+14     	; 0x1c8e <main+0xbb2>
_delay_ms():
/home/wlf-solar/.arduino15/packages/DxCore/tools/avr-gcc/7.3.0-atmel3.6.1-azduino7b1/avr/include/util/delay.h:187
    1c80:	af e4       	ldi	r26, 0x4F	; 79
    1c82:	b3 ec       	ldi	r27, 0xC3	; 195
    1c84:	11 97       	sbiw	r26, 0x01	; 1
    1c86:	f1 f7       	brne	.-4      	; 0x1c84 <main+0xba8>
    1c88:	00 c0       	rjmp	.+0      	; 0x1c8a <main+0xbae>
    1c8a:	00 00       	nop
    1c8c:	f6 cf       	rjmp	.-20     	; 0x1c7a <main+0xb9e>
playFollowTheSequence():
/home/wlf-solar/Documents/bsides-leeds-2026-badge/firmware/firmware.ino:524
        delay(TOUCH_POLL_MS);
      }

      if (!isExpectedSequenceButton(sequence[sequenceIndex], pressedMask)) {
    1c8e:	f5 01       	movw	r30, r10
    1c90:	81 91       	ld	r24, Z+
    1c92:	5f 01       	movw	r10, r30
isExpectedSequenceButton():
/home/wlf-solar/Documents/bsides-leeds-2026-badge/firmware/firmware.ino:443



bool isExpectedSequenceButton(uint8_t expectedColor, uint8_t pressedMask)
{
  switch (expectedColor) {
    1c94:	81 30       	cpi	r24, 0x01	; 1
    1c96:	11 f1       	breq	.+68     	; 0x1cdc <main+0xc00>
    1c98:	30 f0       	brcs	.+12     	; 0x1ca6 <main+0xbca>
    1c9a:	82 30       	cpi	r24, 0x02	; 2
    1c9c:	31 f1       	breq	.+76     	; 0x1cea <main+0xc0e>
showFailure():
/home/wlf-solar/Documents/bsides-leeds-2026-badge/firmware/firmware.ino:340
  delay(50);
}

void showFailure()
{
  flashNotification(COLOR_RED);
    1c9e:	6c 89       	ldd	r22, Y+20	; 0x14
    1ca0:	7d 89       	ldd	r23, Y+21	; 0x15
    1ca2:	8e 89       	ldd	r24, Y+22	; 0x16
    1ca4:	f7 ce       	rjmp	.-530    	; 0x1a94 <main+0x9b8>
isExpectedSequenceButton():
/home/wlf-solar/Documents/bsides-leeds-2026-badge/firmware/firmware.ino:445

bool isExpectedSequenceButton(uint8_t expectedColor, uint8_t pressedMask)
{
  switch (expectedColor) {
    case 0:
      return pressedMask == LEFT_RED_MASK || pressedMask == RIGHT_RED_MASK;
    1ca6:	f2 e0       	ldi	r31, 0x02	; 2
    1ca8:	df 16       	cp	r13, r31
    1caa:	19 f0       	breq	.+6      	; 0x1cb2 <main+0xbd6>
    1cac:	20 e1       	ldi	r18, 0x10	; 16
    1cae:	d2 12       	cpse	r13, r18
    1cb0:	f6 cf       	rjmp	.-20     	; 0x1c9e <main+0xbc2>
playFollowTheSequence():
/home/wlf-solar/Documents/bsides-leeds-2026-badge/firmware/firmware.ino:530
        showFailure();
        disableRebootOnButton();
        return false;
      }

      setAllLeds(COLOR_OFF, true);
    1cb2:	41 e0       	ldi	r20, 0x01	; 1
    1cb4:	88 2d       	mov	r24, r8
    1cb6:	b3 01       	movw	r22, r6
    1cb8:	74 d5       	rcall	.+2792   	; 0x27a2 <__TEXT_REGION_LENGTH__+0x7a2>
delay():
    1cba:	64 ef       	ldi	r22, 0xF4	; 244
    1cbc:	71 e0       	ldi	r23, 0x01	; 1
    1cbe:	80 e0       	ldi	r24, 0x00	; 0
    1cc0:	90 e0       	ldi	r25, 0x00	; 0
    1cc2:	84 d2       	rcall	.+1288   	; 0x21cc <__TEXT_REGION_LENGTH__+0x1cc>
playFollowTheSequence():
/home/wlf-solar/Documents/bsides-leeds-2026-badge/firmware/firmware.ino:510
      delay(400);
      setAllLeds(COLOR_OFF, true);
      delay(200);
    }

    for (uint8_t sequenceIndex = 0; sequenceIndex < level; ++sequenceIndex) {
    1cc4:	8a 2d       	mov	r24, r10
    1cc6:	85 19       	sub	r24, r5
    1cc8:	89 15       	cp	r24, r9
    1cca:	48 f2       	brcs	.-110    	; 0x1c5e <main+0xb82>
/home/wlf-solar/Documents/bsides-leeds-2026-badge/firmware/firmware.ino:501
{
  enableRebootOnButton();
  uint8_t sequence[NUM_SEQUENCE_LEVELS];
  createRandomSequence(sequence, NUM_SEQUENCE_LEVELS);

  for (uint8_t level = MEMORY_START_LEVEL; level < NUM_SEQUENCE_LEVELS; ++level) {
    1ccc:	93 94       	inc	r9
    1cce:	aa e0       	ldi	r26, 0x0A	; 10
    1cd0:	9a 12       	cpse	r9, r26
    1cd2:	aa cf       	rjmp	.-172    	; 0x1c28 <main+0xb4c>
/home/wlf-solar/Documents/bsides-leeds-2026-badge/firmware/firmware.ino:535
      setAllLeds(COLOR_OFF, true);
      delay(500);
    }
  }

  state = state & B11111101;
    1cd4:	80 91 d0 3e 	lds	r24, 0x3ED0	; 0x803ed0 <state>
    1cd8:	8d 7f       	andi	r24, 0xFD	; 253
    1cda:	05 cf       	rjmp	.-502    	; 0x1ae6 <main+0xa0a>
isExpectedSequenceButton():
/home/wlf-solar/Documents/bsides-leeds-2026-badge/firmware/firmware.ino:447
{
  switch (expectedColor) {
    case 0:
      return pressedMask == LEFT_RED_MASK || pressedMask == RIGHT_RED_MASK;
    case 1:
      return pressedMask == LEFT_GREEN_MASK || pressedMask == RIGHT_GREEN_MASK;
    1cdc:	34 e0       	ldi	r19, 0x04	; 4
    1cde:	d3 16       	cp	r13, r19
    1ce0:	41 f3       	breq	.-48     	; 0x1cb2 <main+0xbd6>
    1ce2:	68 e0       	ldi	r22, 0x08	; 8
    1ce4:	d6 12       	cpse	r13, r22
    1ce6:	db cf       	rjmp	.-74     	; 0x1c9e <main+0xbc2>
    1ce8:	e4 cf       	rjmp	.-56     	; 0x1cb2 <main+0xbd6>
/home/wlf-solar/Documents/bsides-leeds-2026-badge/firmware/firmware.ino:449
    case 2:
      return pressedMask == LEFT_BLUE_MASK || pressedMask == RIGHT_BLUE_MASK;
    1cea:	81 e0       	ldi	r24, 0x01	; 1
    1cec:	d8 16       	cp	r13, r24
    1cee:	09 f3       	breq	.-62     	; 0x1cb2 <main+0xbd6>
    1cf0:	90 e2       	ldi	r25, 0x20	; 32
    1cf2:	d9 12       	cpse	r13, r25
    1cf4:	d4 cf       	rjmp	.-88     	; 0x1c9e <main+0xbc2>
    1cf6:	dd cf       	rjmp	.-70     	; 0x1cb2 <main+0xbd6>
showBatteryLevel():
/home/wlf-solar/Documents/bsides-leeds-2026-badge/firmware/firmware.ino:860
// Green = good, orange = medium, red = low.
void showBatteryLevel()
{
  // ATtiny814 is 0/1-series: no VDDDIV10. Instead measure the internal
  // 1.1V bandgap with VCC as the ADC reference. VCC = 1126400L / raw (mV).
  ADC0.MUXPOS = ADC_MUXPOS_INTREF_gc;
    1cf8:	8d e1       	ldi	r24, 0x1D	; 29
    1cfa:	80 93 06 06 	sts	0x0606, r24	; 0x800606 <digital_pin_to_bit_mask+0x7f661a>
/home/wlf-solar/Documents/bsides-leeds-2026-badge/firmware/firmware.ino:861
  VREF.CTRLA  = VREF_ADC0REFSEL_1V1_gc;
    1cfe:	80 e1       	ldi	r24, 0x10	; 16
    1d00:	80 93 a0 00 	sts	0x00A0, r24	; 0x8000a0 <digital_pin_to_bit_mask+0x7f60b4>
/home/wlf-solar/Documents/bsides-leeds-2026-badge/firmware/firmware.ino:862
  ADC0.CTRLA  = ADC_ENABLE_bm;
    1d04:	81 e0       	ldi	r24, 0x01	; 1
    1d06:	80 93 00 06 	sts	0x0600, r24	; 0x800600 <digital_pin_to_bit_mask+0x7f6614>
/home/wlf-solar/Documents/bsides-leeds-2026-badge/firmware/firmware.ino:863
  ADC0.CTRLB  = 0; // single sample
    1d0a:	10 92 01 06 	sts	0x0601, r1	; 0x800601 <digital_pin_to_bit_mask+0x7f6615>
_delay_ms():
/home/wlf-solar/.arduino15/packages/DxCore/tools/avr-gcc/7.3.0-atmel3.6.1-azduino7b1/avr/include/util/delay.h:187
    1d0e:	ef e0       	ldi	r30, 0x0F	; 15
    1d10:	f7 e2       	ldi	r31, 0x27	; 39
    1d12:	31 97       	sbiw	r30, 0x01	; 1
    1d14:	f1 f7       	brne	.-4      	; 0x1d12 <main+0xc36>
    1d16:	00 c0       	rjmp	.+0      	; 0x1d18 <main+0xc3c>
    1d18:	00 00       	nop
showBatteryLevel():
/home/wlf-solar/Documents/bsides-leeds-2026-badge/firmware/firmware.ino:865
  delay(2);
  ADC0.COMMAND = ADC_STCONV_bm;
    1d1a:	80 93 08 06 	sts	0x0608, r24	; 0x800608 <digital_pin_to_bit_mask+0x7f661c>
/home/wlf-solar/Documents/bsides-leeds-2026-badge/firmware/firmware.ino:866
  while (!(ADC0.INTFLAGS & ADC_RESRDY_bm));
    1d1e:	80 91 0b 06 	lds	r24, 0x060B	; 0x80060b <digital_pin_to_bit_mask+0x7f661f>
    1d22:	80 ff       	sbrs	r24, 0
    1d24:	fc cf       	rjmp	.-8      	; 0x1d1e <main+0xc42>
/home/wlf-solar/Documents/bsides-leeds-2026-badge/firmware/firmware.ino:867
  int raw = ADC0.RES;
    1d26:	20 91 10 06 	lds	r18, 0x0610	; 0x800610 <digital_pin_to_bit_mask+0x7f6624>
    1d2a:	30 91 11 06 	lds	r19, 0x0611	; 0x800611 <digital_pin_to_bit_mask+0x7f6625>
/home/wlf-solar/Documents/bsides-leeds-2026-badge/firmware/firmware.ino:868
  ADC0.INTFLAGS = ADC_RESRDY_bm;
    1d2e:	81 e0       	ldi	r24, 0x01	; 1
    1d30:	80 93 0b 06 	sts	0x060B, r24	; 0x80060b <digital_pin_to_bit_mask+0x7f661f>
/home/wlf-solar/Documents/bsides-leeds-2026-badge/firmware/firmware.ino:870
  // restore ADC for touch library
  ADC0.CTRLA &= ~ADC_ENABLE_bm;
    1d34:	80 91 00 06 	lds	r24, 0x0600	; 0x800600 <digital_pin_to_bit_mask+0x7f6614>
    1d38:	8e 7f       	andi	r24, 0xFE	; 254
    1d3a:	80 93 00 06 	sts	0x0600, r24	; 0x800600 <digital_pin_to_bit_mask+0x7f6614>
/home/wlf-solar/Documents/bsides-leeds-2026-badge/firmware/firmware.ino:875

  // VCC in mV = 1126400 / raw  (1.1V * 1024 * 1000)
  // At 6000mV: raw ~= 188, at 4000mV: raw ~= 281
  // Map: more LEDs = higher voltage. Clamp to 1-9.
  uint16_t vcc_mv = (uint16_t)(1126400L / raw);
    1d3e:	03 2e       	mov	r0, r19
    1d40:	00 0c       	add	r0, r0
    1d42:	44 0b       	sbc	r20, r20
    1d44:	55 0b       	sbc	r21, r21
    1d46:	60 e0       	ldi	r22, 0x00	; 0
    1d48:	70 e3       	ldi	r23, 0x30	; 48
    1d4a:	81 e1       	ldi	r24, 0x11	; 17
    1d4c:	90 e0       	ldi	r25, 0x00	; 0
    1d4e:	f0 d0       	rcall	.+480    	; 0x1f30 <__divmodsi4>
/home/wlf-solar/Documents/bsides-leeds-2026-badge/firmware/firmware.ino:877
  uint8_t leds;
  if (vcc_mv >= 6000) leds = 9;
    1d50:	20 37       	cpi	r18, 0x70	; 112
    1d52:	f7 e1       	ldi	r31, 0x17	; 23
    1d54:	3f 07       	cpc	r19, r31
    1d56:	18 f5       	brcc	.+70     	; 0x1d9e <main+0xcc2>
/home/wlf-solar/Documents/bsides-leeds-2026-badge/firmware/firmware.ino:878
  else if (vcc_mv <= 4000) leds = 1;
    1d58:	21 3a       	cpi	r18, 0xA1	; 161
    1d5a:	6f e0       	ldi	r22, 0x0F	; 15
    1d5c:	36 07       	cpc	r19, r22
    1d5e:	08 f4       	brcc	.+2      	; 0x1d62 <main+0xc86>
    1d60:	4c c0       	rjmp	.+152    	; 0x1dfa <main+0xd1e>
/home/wlf-solar/Documents/bsides-leeds-2026-badge/firmware/firmware.ino:879
  else leds = (uint8_t)(((uint32_t)(vcc_mv - 4000) * 8) / 2000) + 1;
    1d62:	20 5a       	subi	r18, 0xA0	; 160
    1d64:	3f 40       	sbci	r19, 0x0F	; 15
    1d66:	b9 01       	movw	r22, r18
    1d68:	90 e0       	ldi	r25, 0x00	; 0
    1d6a:	80 e0       	ldi	r24, 0x00	; 0
    1d6c:	53 e0       	ldi	r21, 0x03	; 3
    1d6e:	66 0f       	add	r22, r22
    1d70:	77 1f       	adc	r23, r23
    1d72:	88 1f       	adc	r24, r24
    1d74:	99 1f       	adc	r25, r25
    1d76:	5a 95       	dec	r21
    1d78:	d1 f7       	brne	.-12     	; 0x1d6e <main+0xc92>
    1d7a:	20 ed       	ldi	r18, 0xD0	; 208
    1d7c:	37 e0       	ldi	r19, 0x07	; 7
    1d7e:	40 e0       	ldi	r20, 0x00	; 0
    1d80:	50 e0       	ldi	r21, 0x00	; 0
    1d82:	b4 d0       	rcall	.+360    	; 0x1eec <__udivmodsi4>
    1d84:	cc 24       	eor	r12, r12
    1d86:	c3 94       	inc	r12
    1d88:	c2 0e       	add	r12, r18
/home/wlf-solar/Documents/bsides-leeds-2026-badge/firmware/firmware.ino:883

  // colour: green >= 7, orange >= 4, red < 4
  uint8_t batR, batG;
  if (leds >= 7)      { batR = 0;  batG = 25; }
    1d8a:	86 e0       	ldi	r24, 0x06	; 6
    1d8c:	8c 15       	cp	r24, r12
    1d8e:	48 f0       	brcs	.+18     	; 0x1da2 <main+0xcc6>
/home/wlf-solar/Documents/bsides-leeds-2026-badge/firmware/firmware.ino:884
  else if (leds >= 4) { batR = 25; batG = 10; }
    1d90:	93 e0       	ldi	r25, 0x03	; 3
main():
/home/wlf-solar/Documents/bsides-leeds-2026-badge/firmware/firmware.ino:885
  else                { batR = 25; batG = 0;  }
    1d92:	b1 2c       	mov	r11, r1
showBatteryLevel():
/home/wlf-solar/Documents/bsides-leeds-2026-badge/firmware/firmware.ino:884
  else leds = (uint8_t)(((uint32_t)(vcc_mv - 4000) * 8) / 2000) + 1;

  // colour: green >= 7, orange >= 4, red < 4
  uint8_t batR, batG;
  if (leds >= 7)      { batR = 0;  batG = 25; }
  else if (leds >= 4) { batR = 25; batG = 10; }
    1d94:	9c 15       	cp	r25, r12
    1d96:	a0 f5       	brcc	.+104    	; 0x1e00 <main+0xd24>
main():
    1d98:	2a e0       	ldi	r18, 0x0A	; 10
    1d9a:	b2 2e       	mov	r11, r18
    1d9c:	31 c0       	rjmp	.+98     	; 0x1e00 <main+0xd24>
/home/wlf-solar/Documents/bsides-leeds-2026-badge/firmware/firmware.ino:877
  // VCC in mV = 1126400 / raw  (1.1V * 1024 * 1000)
  // At 6000mV: raw ~= 188, at 4000mV: raw ~= 281
  // Map: more LEDs = higher voltage. Clamp to 1-9.
  uint16_t vcc_mv = (uint16_t)(1126400L / raw);
  uint8_t leds;
  if (vcc_mv >= 6000) leds = 9;
    1d9e:	49 e0       	ldi	r20, 0x09	; 9
    1da0:	c4 2e       	mov	r12, r20
/home/wlf-solar/Documents/bsides-leeds-2026-badge/firmware/firmware.ino:883
  else if (vcc_mv <= 4000) leds = 1;
  else leds = (uint8_t)(((uint32_t)(vcc_mv - 4000) * 8) / 2000) + 1;

  // colour: green >= 7, orange >= 4, red < 4
  uint8_t batR, batG;
  if (leds >= 7)      { batR = 0;  batG = 25; }
    1da2:	39 e1       	ldi	r19, 0x19	; 25
    1da4:	b3 2e       	mov	r11, r19
showBatteryLevel():
/home/wlf-solar/Documents/bsides-leeds-2026-badge/firmware/firmware.ino:887
  else if (leds >= 4) { batR = 25; batG = 10; }
  else                { batR = 25; batG = 0;  }

  setAllLeds(0, 0, 0);
    1da6:	20 e0       	ldi	r18, 0x00	; 0
    1da8:	40 e0       	ldi	r20, 0x00	; 0
    1daa:	60 e0       	ldi	r22, 0x00	; 0
    1dac:	80 e0       	ldi	r24, 0x00	; 0
    1dae:	d4 d4       	rcall	.+2472   	; 0x2758 <__TEXT_REGION_LENGTH__+0x758>
    1db0:	f1 2c       	mov	r15, r1
    1db2:	e1 2c       	mov	r14, r1
/home/wlf-solar/Documents/bsides-leeds-2026-badge/firmware/firmware.ino:889
  for (uint8_t i = 0; i < leds; ++i) {
    ledStrip.setPixelColor(pgm_read_byte(&SPIN_LEDS_LEFT[i]),  batR, batG, 0);
    1db4:	f7 01       	movw	r30, r14
    1db6:	e9 59       	subi	r30, 0x99	; 153
    1db8:	ff 4f       	sbci	r31, 0xFF	; 255
    1dba:	84 91       	lpm	r24, Z
    1dbc:	20 e0       	ldi	r18, 0x00	; 0
    1dbe:	4b 2d       	mov	r20, r11
    1dc0:	6d 2d       	mov	r22, r13
    1dc2:	90 e0       	ldi	r25, 0x00	; 0
    1dc4:	bd d1       	rcall	.+890    	; 0x2140 <__TEXT_REGION_LENGTH__+0x140>
/home/wlf-solar/Documents/bsides-leeds-2026-badge/firmware/firmware.ino:890
    ledStrip.setPixelColor(pgm_read_byte(&SPIN_LEDS_RIGHT[i]), batR, batG, 0);
    1dc6:	f7 01       	movw	r30, r14
    1dc8:	e2 5a       	subi	r30, 0xA2	; 162
    1dca:	ff 4f       	sbci	r31, 0xFF	; 255
    1dcc:	84 91       	lpm	r24, Z
    1dce:	20 e0       	ldi	r18, 0x00	; 0
    1dd0:	4b 2d       	mov	r20, r11
    1dd2:	6d 2d       	mov	r22, r13
    1dd4:	90 e0       	ldi	r25, 0x00	; 0
    1dd6:	b4 d1       	rcall	.+872    	; 0x2140 <__TEXT_REGION_LENGTH__+0x140>
    1dd8:	af ef       	ldi	r26, 0xFF	; 255
    1dda:	ea 1a       	sub	r14, r26
    1ddc:	fa 0a       	sbc	r15, r26
/home/wlf-solar/Documents/bsides-leeds-2026-badge/firmware/firmware.ino:888
  if (leds >= 7)      { batR = 0;  batG = 25; }
  else if (leds >= 4) { batR = 25; batG = 10; }
  else                { batR = 25; batG = 0;  }

  setAllLeds(0, 0, 0);
  for (uint8_t i = 0; i < leds; ++i) {
    1dde:	ec 14       	cp	r14, r12
    1de0:	48 f3       	brcs	.-46     	; 0x1db4 <main+0xcd8>
/home/wlf-solar/Documents/bsides-leeds-2026-badge/firmware/firmware.ino:892
    ledStrip.setPixelColor(pgm_read_byte(&SPIN_LEDS_LEFT[i]),  batR, batG, 0);
    ledStrip.setPixelColor(pgm_read_byte(&SPIN_LEDS_RIGHT[i]), batR, batG, 0);
  }
  ledStrip.show();
    1de2:	6a d2       	rcall	.+1236   	; 0x22b8 <__TEXT_REGION_LENGTH__+0x2b8>
delay():
    1de4:	68 eb       	ldi	r22, 0xB8	; 184
    1de6:	7b e0       	ldi	r23, 0x0B	; 11
    1de8:	80 e0       	ldi	r24, 0x00	; 0
    1dea:	90 e0       	ldi	r25, 0x00	; 0
    1dec:	ef d1       	rcall	.+990    	; 0x21cc <__TEXT_REGION_LENGTH__+0x1cc>
showBatteryLevel():
/home/wlf-solar/Documents/bsides-leeds-2026-badge/firmware/firmware.ino:894
  delay(3000);
  setAllLeds(0, 0, 0, true);
    1dee:	21 e0       	ldi	r18, 0x01	; 1
    1df0:	40 e0       	ldi	r20, 0x00	; 0
    1df2:	60 e0       	ldi	r22, 0x00	; 0
    1df4:	80 e0       	ldi	r24, 0x00	; 0
    1df6:	b0 d4       	rcall	.+2400   	; 0x2758 <__TEXT_REGION_LENGTH__+0x758>
    1df8:	98 cd       	rjmp	.-1232   	; 0x192a <main+0x84e>
main():
/home/wlf-solar/Documents/bsides-leeds-2026-badge/firmware/firmware.ino:885

  // colour: green >= 7, orange >= 4, red < 4
  uint8_t batR, batG;
  if (leds >= 7)      { batR = 0;  batG = 25; }
  else if (leds >= 4) { batR = 25; batG = 10; }
  else                { batR = 25; batG = 0;  }
    1dfa:	b1 2c       	mov	r11, r1
/home/wlf-solar/Documents/bsides-leeds-2026-badge/firmware/firmware.ino:878
  // At 6000mV: raw ~= 188, at 4000mV: raw ~= 281
  // Map: more LEDs = higher voltage. Clamp to 1-9.
  uint16_t vcc_mv = (uint16_t)(1126400L / raw);
  uint8_t leds;
  if (vcc_mv >= 6000) leds = 9;
  else if (vcc_mv <= 4000) leds = 1;
    1dfc:	cc 24       	eor	r12, r12
    1dfe:	c3 94       	inc	r12
/home/wlf-solar/Documents/bsides-leeds-2026-badge/firmware/firmware.ino:884
  else leds = (uint8_t)(((uint32_t)(vcc_mv - 4000) * 8) / 2000) + 1;

  // colour: green >= 7, orange >= 4, red < 4
  uint8_t batR, batG;
  if (leds >= 7)      { batR = 0;  batG = 25; }
  else if (leds >= 4) { batR = 25; batG = 10; }
    1e00:	99 e1       	ldi	r25, 0x19	; 25
    1e02:	d9 2e       	mov	r13, r25
    1e04:	d0 cf       	rjmp	.-96     	; 0x1da6 <main+0xcca>
    1e06:	dc 2c       	mov	r13, r12
    1e08:	df 0c       	add	r13, r15
delay():
    1e0a:	62 ec       	ldi	r22, 0xC2	; 194
    1e0c:	71 e0       	ldi	r23, 0x01	; 1
    1e0e:	80 e0       	ldi	r24, 0x00	; 0
    1e10:	90 e0       	ldi	r25, 0x00	; 0
    1e12:	dc d1       	rcall	.+952    	; 0x21cc <__TEXT_REGION_LENGTH__+0x1cc>
    1e14:	ea 94       	dec	r14
playRickRoll():
/home/wlf-solar/Documents/bsides-leeds-2026-badge/firmware/firmware.ino:1157
void playRickRoll()
{
  setAllLeds(COLOR_OFF, true);
  delay(600);
  uint8_t pos = 0;
  for (uint8_t ch = 0; ch < RICKROLL_CHARS; ++ch) {
    1e16:	e1 10       	cpse	r14, r1
    1e18:	da cd       	rjmp	.-1100   	; 0x19ce <main+0x8f2>
delay():
    1e1a:	60 eb       	ldi	r22, 0xB0	; 176
    1e1c:	74 e0       	ldi	r23, 0x04	; 4
    1e1e:	80 e0       	ldi	r24, 0x00	; 0
    1e20:	90 e0       	ldi	r25, 0x00	; 0
    1e22:	d4 d1       	rcall	.+936    	; 0x21cc <__TEXT_REGION_LENGTH__+0x1cc>
    1e24:	82 cd       	rjmp	.-1276   	; 0x192a <main+0x84e>
loop():
/home/wlf-solar/Documents/bsides-leeds-2026-badge/firmware/firmware.ino:1313
      else if (buttonLowTime > 0) {
        animationStep = 0;
      }
    }

    if (totalIntervalMs > WAKE_TIMEOUT_MS) {
    1e26:	b1 ea       	ldi	r27, 0xA1	; 161
    1e28:	ab 16       	cp	r10, r27
    1e2a:	bb eb       	ldi	r27, 0xBB	; 187
    1e2c:	bb 06       	cpc	r11, r27
    1e2e:	bd e0       	ldi	r27, 0x0D	; 13
    1e30:	cb 06       	cpc	r12, r27
    1e32:	d1 04       	cpc	r13, r1
    1e34:	08 f4       	brcc	.+2      	; 0x1e38 <main+0xd5c>
    1e36:	e6 ca       	rjmp	.-2612   	; 0x1404 <main+0x328>
    1e38:	46 cd       	rjmp	.-1396   	; 0x18c6 <main+0x7ea>

00001e3a <_GLOBAL__sub_I_touchButtons>:
_GLOBAL__sub_I_touchButtons():
/home/wlf-solar/.arduino15/packages/megaTinyCore/hardware/megaavr/2.6.11/libraries/tinyNeoPixel_Static/tinyNeoPixel_Static.cpp:53

#include "tinyNeoPixel_Static.h"

// Constructor when length, pin and type are known at compile-time:
tinyNeoPixel::tinyNeoPixel(uint16_t n, uint8_t p, neoPixelType t, uint8_t *pxl) :
  latchTime(50), brightness(0), pixels(pxl), endTime(0) {
    1e3a:	eb ed       	ldi	r30, 0xDB	; 219
    1e3c:	fe e3       	ldi	r31, 0x3E	; 62
    1e3e:	82 e3       	ldi	r24, 0x32	; 50
    1e40:	90 e0       	ldi	r25, 0x00	; 0
    1e42:	84 83       	std	Z+4, r24	; 0x04
    1e44:	95 83       	std	Z+5, r25	; 0x05
    1e46:	17 82       	std	Z+7, r1	; 0x07
    1e48:	84 e0       	ldi	r24, 0x04	; 4
    1e4a:	9e e3       	ldi	r25, 0x3E	; 62
    1e4c:	80 87       	std	Z+8, r24	; 0x08
    1e4e:	91 87       	std	Z+9, r25	; 0x09
    1e50:	16 86       	std	Z+14, r1	; 0x0e
    1e52:	17 86       	std	Z+15, r1	; 0x0f
    1e54:	10 8a       	std	Z+16, r1	; 0x10
    1e56:	11 8a       	std	Z+17, r1	; 0x11
/home/wlf-solar/.arduino15/packages/megaTinyCore/hardware/megaavr/2.6.11/libraries/tinyNeoPixel_Static/tinyNeoPixel_Static.cpp:55
  // boolean oldThreeBytesPerPixel = (wOffset == rOffset); // false if RGBW
  wOffset = (t >> 6) & 0b11; // See notes in header file
    1e58:	81 e0       	ldi	r24, 0x01	; 1
    1e5a:	85 87       	std	Z+13, r24	; 0x0d
/home/wlf-solar/.arduino15/packages/megaTinyCore/hardware/megaavr/2.6.11/libraries/tinyNeoPixel_Static/tinyNeoPixel_Static.cpp:56
  rOffset = (t >> 4) & 0b11; // regarding R/G/B/W offsets
    1e5c:	82 87       	std	Z+10, r24	; 0x0a
/home/wlf-solar/.arduino15/packages/megaTinyCore/hardware/megaavr/2.6.11/libraries/tinyNeoPixel_Static/tinyNeoPixel_Static.cpp:57
  gOffset = (t >> 2) & 0b11;
    1e5e:	13 86       	std	Z+11, r1	; 0x0b
/home/wlf-solar/.arduino15/packages/megaTinyCore/hardware/megaavr/2.6.11/libraries/tinyNeoPixel_Static/tinyNeoPixel_Static.cpp:58
  bOffset =  t       & 0b11;
    1e60:	82 e0       	ldi	r24, 0x02	; 2
    1e62:	84 87       	std	Z+12, r24	; 0x0c
/home/wlf-solar/.arduino15/packages/megaTinyCore/hardware/megaavr/2.6.11/libraries/tinyNeoPixel_Static/tinyNeoPixel_Static.cpp:59
  numBytes = n * ((wOffset == rOffset) ? 3 : 4);
    1e64:	86 e3       	ldi	r24, 0x36	; 54
    1e66:	90 e0       	ldi	r25, 0x00	; 0
    1e68:	82 83       	std	Z+2, r24	; 0x02
    1e6a:	93 83       	std	Z+3, r25	; 0x03
/home/wlf-solar/.arduino15/packages/megaTinyCore/hardware/megaavr/2.6.11/libraries/tinyNeoPixel_Static/tinyNeoPixel_Static.cpp:60
  numLEDs = n;
    1e6c:	82 e1       	ldi	r24, 0x12	; 18
    1e6e:	90 e0       	ldi	r25, 0x00	; 0
    1e70:	80 83       	st	Z, r24
    1e72:	91 83       	std	Z+1, r25	; 0x01
/home/wlf-solar/.arduino15/packages/megaTinyCore/hardware/megaavr/2.6.11/libraries/tinyNeoPixel_Static/tinyNeoPixel_Static.cpp:61
  pin = p;
    1e74:	84 e0       	ldi	r24, 0x04	; 4
    1e76:	86 83       	std	Z+6, r24	; 0x06
/home/wlf-solar/.arduino15/packages/megaTinyCore/hardware/megaavr/2.6.11/libraries/tinyNeoPixel_Static/tinyNeoPixel_Static.cpp:62
  port    = portOutputRegister(digitalPinToPort(p));
    1e78:	84 e2       	ldi	r24, 0x24	; 36
    1e7a:	94 e0       	ldi	r25, 0x04	; 4
    1e7c:	82 8b       	std	Z+18, r24	; 0x12
    1e7e:	93 8b       	std	Z+19, r25	; 0x13
/home/wlf-solar/.arduino15/packages/megaTinyCore/hardware/megaavr/2.6.11/libraries/tinyNeoPixel_Static/tinyNeoPixel_Static.cpp:63
  pinMask = digitalPinToBitMask(p);
    1e80:	88 e0       	ldi	r24, 0x08	; 8
    1e82:	84 8b       	std	Z+20, r24	; 0x14
/home/wlf-solar/Documents/bsides-leeds-2026-badge/firmware/firmware.ino:1319
      totalIntervalMs = 0;
      animationStep = 0;
      enterSleep();
    }
  }
}
    1e84:	08 95       	ret

00001e86 <__udivmodqi4>:
__udivmodqi4():
/home/admin/Arduino/toolchain-avr-special-master/gcc-build/avr/avrxmega3/short-calls/libgcc/../../../../../gcc/libgcc/config/avr/lib1funcs.S:1346
    1e86:	99 1b       	sub	r25, r25
/home/admin/Arduino/toolchain-avr-special-master/gcc-build/avr/avrxmega3/short-calls/libgcc/../../../../../gcc/libgcc/config/avr/lib1funcs.S:1347
    1e88:	79 e0       	ldi	r23, 0x09	; 9
/home/admin/Arduino/toolchain-avr-special-master/gcc-build/avr/avrxmega3/short-calls/libgcc/../../../../../gcc/libgcc/config/avr/lib1funcs.S:1348
    1e8a:	04 c0       	rjmp	.+8      	; 0x1e94 <__udivmodqi4_ep>

00001e8c <__udivmodqi4_loop>:
/home/admin/Arduino/toolchain-avr-special-master/gcc-build/avr/avrxmega3/short-calls/libgcc/../../../../../gcc/libgcc/config/avr/lib1funcs.S:1350
    1e8c:	99 1f       	adc	r25, r25
/home/admin/Arduino/toolchain-avr-special-master/gcc-build/avr/avrxmega3/short-calls/libgcc/../../../../../gcc/libgcc/config/avr/lib1funcs.S:1351
    1e8e:	96 17       	cp	r25, r22
/home/admin/Arduino/toolchain-avr-special-master/gcc-build/avr/avrxmega3/short-calls/libgcc/../../../../../gcc/libgcc/config/avr/lib1funcs.S:1352
    1e90:	08 f0       	brcs	.+2      	; 0x1e94 <__udivmodqi4_ep>
/home/admin/Arduino/toolchain-avr-special-master/gcc-build/avr/avrxmega3/short-calls/libgcc/../../../../../gcc/libgcc/config/avr/lib1funcs.S:1353
    1e92:	96 1b       	sub	r25, r22

00001e94 <__udivmodqi4_ep>:
/home/admin/Arduino/toolchain-avr-special-master/gcc-build/avr/avrxmega3/short-calls/libgcc/../../../../../gcc/libgcc/config/avr/lib1funcs.S:1355
    1e94:	88 1f       	adc	r24, r24
/home/admin/Arduino/toolchain-avr-special-master/gcc-build/avr/avrxmega3/short-calls/libgcc/../../../../../gcc/libgcc/config/avr/lib1funcs.S:1356
    1e96:	7a 95       	dec	r23
/home/admin/Arduino/toolchain-avr-special-master/gcc-build/avr/avrxmega3/short-calls/libgcc/../../../../../gcc/libgcc/config/avr/lib1funcs.S:1357
    1e98:	c9 f7       	brne	.-14     	; 0x1e8c <__udivmodqi4_loop>
/home/admin/Arduino/toolchain-avr-special-master/gcc-build/avr/avrxmega3/short-calls/libgcc/../../../../../gcc/libgcc/config/avr/lib1funcs.S:1358
    1e9a:	80 95       	com	r24
/home/admin/Arduino/toolchain-avr-special-master/gcc-build/avr/avrxmega3/short-calls/libgcc/../../../../../gcc/libgcc/config/avr/lib1funcs.S:1360
    1e9c:	08 95       	ret

00001e9e <__udivmodhi4>:
__udivmodhi4():
/home/admin/Arduino/toolchain-avr-special-master/gcc-build/avr/avrxmega3/short-calls/libgcc/../../../../../gcc/libgcc/config/avr/lib1funcs.S:1408
    1e9e:	aa 1b       	sub	r26, r26
/home/admin/Arduino/toolchain-avr-special-master/gcc-build/avr/avrxmega3/short-calls/libgcc/../../../../../gcc/libgcc/config/avr/lib1funcs.S:1409
    1ea0:	bb 1b       	sub	r27, r27
/home/admin/Arduino/toolchain-avr-special-master/gcc-build/avr/avrxmega3/short-calls/libgcc/../../../../../gcc/libgcc/config/avr/lib1funcs.S:1410
    1ea2:	51 e1       	ldi	r21, 0x11	; 17
/home/admin/Arduino/toolchain-avr-special-master/gcc-build/avr/avrxmega3/short-calls/libgcc/../../../../../gcc/libgcc/config/avr/lib1funcs.S:1411
    1ea4:	07 c0       	rjmp	.+14     	; 0x1eb4 <__udivmodhi4_ep>

00001ea6 <__udivmodhi4_loop>:
/home/admin/Arduino/toolchain-avr-special-master/gcc-build/avr/avrxmega3/short-calls/libgcc/../../../../../gcc/libgcc/config/avr/lib1funcs.S:1413
    1ea6:	aa 1f       	adc	r26, r26
/home/admin/Arduino/toolchain-avr-special-master/gcc-build/avr/avrxmega3/short-calls/libgcc/../../../../../gcc/libgcc/config/avr/lib1funcs.S:1414
    1ea8:	bb 1f       	adc	r27, r27
/home/admin/Arduino/toolchain-avr-special-master/gcc-build/avr/avrxmega3/short-calls/libgcc/../../../../../gcc/libgcc/config/avr/lib1funcs.S:1415
    1eaa:	a6 17       	cp	r26, r22
/home/admin/Arduino/toolchain-avr-special-master/gcc-build/avr/avrxmega3/short-calls/libgcc/../../../../../gcc/libgcc/config/avr/lib1funcs.S:1416
    1eac:	b7 07       	cpc	r27, r23
/home/admin/Arduino/toolchain-avr-special-master/gcc-build/avr/avrxmega3/short-calls/libgcc/../../../../../gcc/libgcc/config/avr/lib1funcs.S:1417
    1eae:	10 f0       	brcs	.+4      	; 0x1eb4 <__udivmodhi4_ep>
/home/admin/Arduino/toolchain-avr-special-master/gcc-build/avr/avrxmega3/short-calls/libgcc/../../../../../gcc/libgcc/config/avr/lib1funcs.S:1418
    1eb0:	a6 1b       	sub	r26, r22
/home/admin/Arduino/toolchain-avr-special-master/gcc-build/avr/avrxmega3/short-calls/libgcc/../../../../../gcc/libgcc/config/avr/lib1funcs.S:1419
    1eb2:	b7 0b       	sbc	r27, r23

00001eb4 <__udivmodhi4_ep>:
/home/admin/Arduino/toolchain-avr-special-master/gcc-build/avr/avrxmega3/short-calls/libgcc/../../../../../gcc/libgcc/config/avr/lib1funcs.S:1421
    1eb4:	88 1f       	adc	r24, r24
/home/admin/Arduino/toolchain-avr-special-master/gcc-build/avr/avrxmega3/short-calls/libgcc/../../../../../gcc/libgcc/config/avr/lib1funcs.S:1422
    1eb6:	99 1f       	adc	r25, r25
/home/admin/Arduino/toolchain-avr-special-master/gcc-build/avr/avrxmega3/short-calls/libgcc/../../../../../gcc/libgcc/config/avr/lib1funcs.S:1423
    1eb8:	5a 95       	dec	r21
/home/admin/Arduino/toolchain-avr-special-master/gcc-build/avr/avrxmega3/short-calls/libgcc/../../../../../gcc/libgcc/config/avr/lib1funcs.S:1424
    1eba:	a9 f7       	brne	.-22     	; 0x1ea6 <__udivmodhi4_loop>
/home/admin/Arduino/toolchain-avr-special-master/gcc-build/avr/avrxmega3/short-calls/libgcc/../../../../../gcc/libgcc/config/avr/lib1funcs.S:1425
    1ebc:	80 95       	com	r24
/home/admin/Arduino/toolchain-avr-special-master/gcc-build/avr/avrxmega3/short-calls/libgcc/../../../../../gcc/libgcc/config/avr/lib1funcs.S:1426
    1ebe:	90 95       	com	r25
/home/admin/Arduino/toolchain-avr-special-master/gcc-build/avr/avrxmega3/short-calls/libgcc/../../../../../gcc/libgcc/config/avr/lib1funcs.S:1428
    1ec0:	bc 01       	movw	r22, r24
/home/admin/Arduino/toolchain-avr-special-master/gcc-build/avr/avrxmega3/short-calls/libgcc/../../../../../gcc/libgcc/config/avr/lib1funcs.S:1430
    1ec2:	cd 01       	movw	r24, r26
/home/admin/Arduino/toolchain-avr-special-master/gcc-build/avr/avrxmega3/short-calls/libgcc/../../../../../gcc/libgcc/config/avr/lib1funcs.S:1432
    1ec4:	08 95       	ret

00001ec6 <__divmodhi4>:
__divmodhi4():
/home/admin/Arduino/toolchain-avr-special-master/gcc-build/avr/avrxmega3/short-calls/libgcc/../../../../../gcc/libgcc/config/avr/lib1funcs.S:1440
    1ec6:	97 fb       	bst	r25, 7
/home/admin/Arduino/toolchain-avr-special-master/gcc-build/avr/avrxmega3/short-calls/libgcc/../../../../../gcc/libgcc/config/avr/lib1funcs.S:1441
    1ec8:	07 2e       	mov	r0, r23
/home/admin/Arduino/toolchain-avr-special-master/gcc-build/avr/avrxmega3/short-calls/libgcc/../../../../../gcc/libgcc/config/avr/lib1funcs.S:1442
    1eca:	16 f4       	brtc	.+4      	; 0x1ed0 <__divmodhi4+0xa>
/home/admin/Arduino/toolchain-avr-special-master/gcc-build/avr/avrxmega3/short-calls/libgcc/../../../../../gcc/libgcc/config/avr/lib1funcs.S:1443
    1ecc:	00 94       	com	r0
/home/admin/Arduino/toolchain-avr-special-master/gcc-build/avr/avrxmega3/short-calls/libgcc/../../../../../gcc/libgcc/config/avr/lib1funcs.S:1444
    1ece:	06 d0       	rcall	.+12     	; 0x1edc <__divmodhi4_neg1>
/home/admin/Arduino/toolchain-avr-special-master/gcc-build/avr/avrxmega3/short-calls/libgcc/../../../../../gcc/libgcc/config/avr/lib1funcs.S:1446
    1ed0:	77 fd       	sbrc	r23, 7
/home/admin/Arduino/toolchain-avr-special-master/gcc-build/avr/avrxmega3/short-calls/libgcc/../../../../../gcc/libgcc/config/avr/lib1funcs.S:1447
    1ed2:	08 d0       	rcall	.+16     	; 0x1ee4 <__divmodhi4_neg2>
/home/admin/Arduino/toolchain-avr-special-master/gcc-build/avr/avrxmega3/short-calls/libgcc/../../../../../gcc/libgcc/config/avr/lib1funcs.S:1448
    1ed4:	e4 df       	rcall	.-56     	; 0x1e9e <__udivmodhi4>
/home/admin/Arduino/toolchain-avr-special-master/gcc-build/avr/avrxmega3/short-calls/libgcc/../../../../../gcc/libgcc/config/avr/lib1funcs.S:1449
    1ed6:	07 fc       	sbrc	r0, 7
/home/admin/Arduino/toolchain-avr-special-master/gcc-build/avr/avrxmega3/short-calls/libgcc/../../../../../gcc/libgcc/config/avr/lib1funcs.S:1450
    1ed8:	05 d0       	rcall	.+10     	; 0x1ee4 <__divmodhi4_neg2>
/home/admin/Arduino/toolchain-avr-special-master/gcc-build/avr/avrxmega3/short-calls/libgcc/../../../../../gcc/libgcc/config/avr/lib1funcs.S:1451
    1eda:	3e f4       	brtc	.+14     	; 0x1eea <__divmodhi4_exit>

00001edc <__divmodhi4_neg1>:
/home/admin/Arduino/toolchain-avr-special-master/gcc-build/avr/avrxmega3/short-calls/libgcc/../../../../../gcc/libgcc/config/avr/lib1funcs.S:1454
    1edc:	90 95       	com	r25
/home/admin/Arduino/toolchain-avr-special-master/gcc-build/avr/avrxmega3/short-calls/libgcc/../../../../../gcc/libgcc/config/avr/lib1funcs.S:1455
    1ede:	81 95       	neg	r24
/home/admin/Arduino/toolchain-avr-special-master/gcc-build/avr/avrxmega3/short-calls/libgcc/../../../../../gcc/libgcc/config/avr/lib1funcs.S:1456
    1ee0:	9f 4f       	sbci	r25, 0xFF	; 255
/home/admin/Arduino/toolchain-avr-special-master/gcc-build/avr/avrxmega3/short-calls/libgcc/../../../../../gcc/libgcc/config/avr/lib1funcs.S:1457
    1ee2:	08 95       	ret

00001ee4 <__divmodhi4_neg2>:
/home/admin/Arduino/toolchain-avr-special-master/gcc-build/avr/avrxmega3/short-calls/libgcc/../../../../../gcc/libgcc/config/avr/lib1funcs.S:1460
    1ee4:	70 95       	com	r23
/home/admin/Arduino/toolchain-avr-special-master/gcc-build/avr/avrxmega3/short-calls/libgcc/../../../../../gcc/libgcc/config/avr/lib1funcs.S:1461
    1ee6:	61 95       	neg	r22
/home/admin/Arduino/toolchain-avr-special-master/gcc-build/avr/avrxmega3/short-calls/libgcc/../../../../../gcc/libgcc/config/avr/lib1funcs.S:1462
    1ee8:	7f 4f       	sbci	r23, 0xFF	; 255

00001eea <__divmodhi4_exit>:
/home/admin/Arduino/toolchain-avr-special-master/gcc-build/avr/avrxmega3/short-calls/libgcc/../../../../../gcc/libgcc/config/avr/lib1funcs.S:1464
    1eea:	08 95       	ret

00001eec <__udivmodsi4>:
__udivmodsi4():
/home/admin/Arduino/toolchain-avr-special-master/gcc-build/avr/avrxmega3/short-calls/libgcc/../../../../../gcc/libgcc/config/avr/lib1funcs.S:1638
    1eec:	a1 e2       	ldi	r26, 0x21	; 33
/home/admin/Arduino/toolchain-avr-special-master/gcc-build/avr/avrxmega3/short-calls/libgcc/../../../../../gcc/libgcc/config/avr/lib1funcs.S:1639
    1eee:	1a 2e       	mov	r1, r26
/home/admin/Arduino/toolchain-avr-special-master/gcc-build/avr/avrxmega3/short-calls/libgcc/../../../../../gcc/libgcc/config/avr/lib1funcs.S:1640
    1ef0:	aa 1b       	sub	r26, r26
/home/admin/Arduino/toolchain-avr-special-master/gcc-build/avr/avrxmega3/short-calls/libgcc/../../../../../gcc/libgcc/config/avr/lib1funcs.S:1641
    1ef2:	bb 1b       	sub	r27, r27
/home/admin/Arduino/toolchain-avr-special-master/gcc-build/avr/avrxmega3/short-calls/libgcc/../../../../../gcc/libgcc/config/avr/lib1funcs.S:1642
    1ef4:	fd 01       	movw	r30, r26
/home/admin/Arduino/toolchain-avr-special-master/gcc-build/avr/avrxmega3/short-calls/libgcc/../../../../../gcc/libgcc/config/avr/lib1funcs.S:1644
    1ef6:	0d c0       	rjmp	.+26     	; 0x1f12 <__udivmodsi4_ep>

00001ef8 <__udivmodsi4_loop>:
/home/admin/Arduino/toolchain-avr-special-master/gcc-build/avr/avrxmega3/short-calls/libgcc/../../../../../gcc/libgcc/config/avr/lib1funcs.S:1646
    1ef8:	aa 1f       	adc	r26, r26
/home/admin/Arduino/toolchain-avr-special-master/gcc-build/avr/avrxmega3/short-calls/libgcc/../../../../../gcc/libgcc/config/avr/lib1funcs.S:1647
    1efa:	bb 1f       	adc	r27, r27
/home/admin/Arduino/toolchain-avr-special-master/gcc-build/avr/avrxmega3/short-calls/libgcc/../../../../../gcc/libgcc/config/avr/lib1funcs.S:1648
    1efc:	ee 1f       	adc	r30, r30
/home/admin/Arduino/toolchain-avr-special-master/gcc-build/avr/avrxmega3/short-calls/libgcc/../../../../../gcc/libgcc/config/avr/lib1funcs.S:1649
    1efe:	ff 1f       	adc	r31, r31
/home/admin/Arduino/toolchain-avr-special-master/gcc-build/avr/avrxmega3/short-calls/libgcc/../../../../../gcc/libgcc/config/avr/lib1funcs.S:1650
    1f00:	a2 17       	cp	r26, r18
/home/admin/Arduino/toolchain-avr-special-master/gcc-build/avr/avrxmega3/short-calls/libgcc/../../../../../gcc/libgcc/config/avr/lib1funcs.S:1651
    1f02:	b3 07       	cpc	r27, r19
/home/admin/Arduino/toolchain-avr-special-master/gcc-build/avr/avrxmega3/short-calls/libgcc/../../../../../gcc/libgcc/config/avr/lib1funcs.S:1652
    1f04:	e4 07       	cpc	r30, r20
/home/admin/Arduino/toolchain-avr-special-master/gcc-build/avr/avrxmega3/short-calls/libgcc/../../../../../gcc/libgcc/config/avr/lib1funcs.S:1653
    1f06:	f5 07       	cpc	r31, r21
/home/admin/Arduino/toolchain-avr-special-master/gcc-build/avr/avrxmega3/short-calls/libgcc/../../../../../gcc/libgcc/config/avr/lib1funcs.S:1654
    1f08:	20 f0       	brcs	.+8      	; 0x1f12 <__udivmodsi4_ep>
/home/admin/Arduino/toolchain-avr-special-master/gcc-build/avr/avrxmega3/short-calls/libgcc/../../../../../gcc/libgcc/config/avr/lib1funcs.S:1655
    1f0a:	a2 1b       	sub	r26, r18
/home/admin/Arduino/toolchain-avr-special-master/gcc-build/avr/avrxmega3/short-calls/libgcc/../../../../../gcc/libgcc/config/avr/lib1funcs.S:1656
    1f0c:	b3 0b       	sbc	r27, r19
/home/admin/Arduino/toolchain-avr-special-master/gcc-build/avr/avrxmega3/short-calls/libgcc/../../../../../gcc/libgcc/config/avr/lib1funcs.S:1657
    1f0e:	e4 0b       	sbc	r30, r20
/home/admin/Arduino/toolchain-avr-special-master/gcc-build/avr/avrxmega3/short-calls/libgcc/../../../../../gcc/libgcc/config/avr/lib1funcs.S:1658
    1f10:	f5 0b       	sbc	r31, r21

00001f12 <__udivmodsi4_ep>:
/home/admin/Arduino/toolchain-avr-special-master/gcc-build/avr/avrxmega3/short-calls/libgcc/../../../../../gcc/libgcc/config/avr/lib1funcs.S:1660
    1f12:	66 1f       	adc	r22, r22
/home/admin/Arduino/toolchain-avr-special-master/gcc-build/avr/avrxmega3/short-calls/libgcc/../../../../../gcc/libgcc/config/avr/lib1funcs.S:1661
    1f14:	77 1f       	adc	r23, r23
/home/admin/Arduino/toolchain-avr-special-master/gcc-build/avr/avrxmega3/short-calls/libgcc/../../../../../gcc/libgcc/config/avr/lib1funcs.S:1662
    1f16:	88 1f       	adc	r24, r24
/home/admin/Arduino/toolchain-avr-special-master/gcc-build/avr/avrxmega3/short-calls/libgcc/../../../../../gcc/libgcc/config/avr/lib1funcs.S:1663
    1f18:	99 1f       	adc	r25, r25
/home/admin/Arduino/toolchain-avr-special-master/gcc-build/avr/avrxmega3/short-calls/libgcc/../../../../../gcc/libgcc/config/avr/lib1funcs.S:1664
    1f1a:	1a 94       	dec	r1
/home/admin/Arduino/toolchain-avr-special-master/gcc-build/avr/avrxmega3/short-calls/libgcc/../../../../../gcc/libgcc/config/avr/lib1funcs.S:1665
    1f1c:	69 f7       	brne	.-38     	; 0x1ef8 <__udivmodsi4_loop>
/home/admin/Arduino/toolchain-avr-special-master/gcc-build/avr/avrxmega3/short-calls/libgcc/../../../../../gcc/libgcc/config/avr/lib1funcs.S:1667
    1f1e:	60 95       	com	r22
/home/admin/Arduino/toolchain-avr-special-master/gcc-build/avr/avrxmega3/short-calls/libgcc/../../../../../gcc/libgcc/config/avr/lib1funcs.S:1668
    1f20:	70 95       	com	r23
/home/admin/Arduino/toolchain-avr-special-master/gcc-build/avr/avrxmega3/short-calls/libgcc/../../../../../gcc/libgcc/config/avr/lib1funcs.S:1669
    1f22:	80 95       	com	r24
/home/admin/Arduino/toolchain-avr-special-master/gcc-build/avr/avrxmega3/short-calls/libgcc/../../../../../gcc/libgcc/config/avr/lib1funcs.S:1670
    1f24:	90 95       	com	r25
/home/admin/Arduino/toolchain-avr-special-master/gcc-build/avr/avrxmega3/short-calls/libgcc/../../../../../gcc/libgcc/config/avr/lib1funcs.S:1672
    1f26:	9b 01       	movw	r18, r22
/home/admin/Arduino/toolchain-avr-special-master/gcc-build/avr/avrxmega3/short-calls/libgcc/../../../../../gcc/libgcc/config/avr/lib1funcs.S:1674
    1f28:	ac 01       	movw	r20, r24
/home/admin/Arduino/toolchain-avr-special-master/gcc-build/avr/avrxmega3/short-calls/libgcc/../../../../../gcc/libgcc/config/avr/lib1funcs.S:1676
    1f2a:	bd 01       	movw	r22, r26
/home/admin/Arduino/toolchain-avr-special-master/gcc-build/avr/avrxmega3/short-calls/libgcc/../../../../../gcc/libgcc/config/avr/lib1funcs.S:1678
    1f2c:	cf 01       	movw	r24, r30
/home/admin/Arduino/toolchain-avr-special-master/gcc-build/avr/avrxmega3/short-calls/libgcc/../../../../../gcc/libgcc/config/avr/lib1funcs.S:1680
    1f2e:	08 95       	ret

00001f30 <__divmodsi4>:
__divmodsi4():
/home/admin/Arduino/toolchain-avr-special-master/gcc-build/avr/avrxmega3/short-calls/libgcc/../../../../../gcc/libgcc/config/avr/lib1funcs.S:1686
    1f30:	05 2e       	mov	r0, r21
/home/admin/Arduino/toolchain-avr-special-master/gcc-build/avr/avrxmega3/short-calls/libgcc/../../../../../gcc/libgcc/config/avr/lib1funcs.S:1687
    1f32:	97 fb       	bst	r25, 7
/home/admin/Arduino/toolchain-avr-special-master/gcc-build/avr/avrxmega3/short-calls/libgcc/../../../../../gcc/libgcc/config/avr/lib1funcs.S:1688
    1f34:	16 f4       	brtc	.+4      	; 0x1f3a <__divmodsi4+0xa>
/home/admin/Arduino/toolchain-avr-special-master/gcc-build/avr/avrxmega3/short-calls/libgcc/../../../../../gcc/libgcc/config/avr/lib1funcs.S:1689
    1f36:	00 94       	com	r0
/home/admin/Arduino/toolchain-avr-special-master/gcc-build/avr/avrxmega3/short-calls/libgcc/../../../../../gcc/libgcc/config/avr/lib1funcs.S:1690
    1f38:	0f d0       	rcall	.+30     	; 0x1f58 <__negsi2>
/home/admin/Arduino/toolchain-avr-special-master/gcc-build/avr/avrxmega3/short-calls/libgcc/../../../../../gcc/libgcc/config/avr/lib1funcs.S:1692
    1f3a:	57 fd       	sbrc	r21, 7
/home/admin/Arduino/toolchain-avr-special-master/gcc-build/avr/avrxmega3/short-calls/libgcc/../../../../../gcc/libgcc/config/avr/lib1funcs.S:1693
    1f3c:	05 d0       	rcall	.+10     	; 0x1f48 <__divmodsi4_neg2>
/home/admin/Arduino/toolchain-avr-special-master/gcc-build/avr/avrxmega3/short-calls/libgcc/../../../../../gcc/libgcc/config/avr/lib1funcs.S:1694
    1f3e:	d6 df       	rcall	.-84     	; 0x1eec <__udivmodsi4>
/home/admin/Arduino/toolchain-avr-special-master/gcc-build/avr/avrxmega3/short-calls/libgcc/../../../../../gcc/libgcc/config/avr/lib1funcs.S:1695
    1f40:	07 fc       	sbrc	r0, 7
/home/admin/Arduino/toolchain-avr-special-master/gcc-build/avr/avrxmega3/short-calls/libgcc/../../../../../gcc/libgcc/config/avr/lib1funcs.S:1696
    1f42:	02 d0       	rcall	.+4      	; 0x1f48 <__divmodsi4_neg2>
/home/admin/Arduino/toolchain-avr-special-master/gcc-build/avr/avrxmega3/short-calls/libgcc/../../../../../gcc/libgcc/config/avr/lib1funcs.S:1697
    1f44:	46 f4       	brtc	.+16     	; 0x1f56 <__divmodsi4_exit>
/home/admin/Arduino/toolchain-avr-special-master/gcc-build/avr/avrxmega3/short-calls/libgcc/../../../../../gcc/libgcc/config/avr/lib1funcs.S:1698
    1f46:	08 c0       	rjmp	.+16     	; 0x1f58 <__negsi2>

00001f48 <__divmodsi4_neg2>:
/home/admin/Arduino/toolchain-avr-special-master/gcc-build/avr/avrxmega3/short-calls/libgcc/../../../../../gcc/libgcc/config/avr/lib1funcs.S:1701
    1f48:	50 95       	com	r21
/home/admin/Arduino/toolchain-avr-special-master/gcc-build/avr/avrxmega3/short-calls/libgcc/../../../../../gcc/libgcc/config/avr/lib1funcs.S:1702
    1f4a:	40 95       	com	r20
/home/admin/Arduino/toolchain-avr-special-master/gcc-build/avr/avrxmega3/short-calls/libgcc/../../../../../gcc/libgcc/config/avr/lib1funcs.S:1703
    1f4c:	30 95       	com	r19
/home/admin/Arduino/toolchain-avr-special-master/gcc-build/avr/avrxmega3/short-calls/libgcc/../../../../../gcc/libgcc/config/avr/lib1funcs.S:1704
    1f4e:	21 95       	neg	r18
/home/admin/Arduino/toolchain-avr-special-master/gcc-build/avr/avrxmega3/short-calls/libgcc/../../../../../gcc/libgcc/config/avr/lib1funcs.S:1705
    1f50:	3f 4f       	sbci	r19, 0xFF	; 255
/home/admin/Arduino/toolchain-avr-special-master/gcc-build/avr/avrxmega3/short-calls/libgcc/../../../../../gcc/libgcc/config/avr/lib1funcs.S:1706
    1f52:	4f 4f       	sbci	r20, 0xFF	; 255
/home/admin/Arduino/toolchain-avr-special-master/gcc-build/avr/avrxmega3/short-calls/libgcc/../../../../../gcc/libgcc/config/avr/lib1funcs.S:1707
    1f54:	5f 4f       	sbci	r21, 0xFF	; 255

00001f56 <__divmodsi4_exit>:
/home/admin/Arduino/toolchain-avr-special-master/gcc-build/avr/avrxmega3/short-calls/libgcc/../../../../../gcc/libgcc/config/avr/lib1funcs.S:1709
    1f56:	08 95       	ret

00001f58 <__negsi2>:
__negsi2():
/home/admin/Arduino/toolchain-avr-special-master/gcc-build/avr/avrxmega3/short-calls/libgcc/../../../../../gcc/libgcc/config/avr/lib1funcs.S:1718
    1f58:	90 95       	com	r25
    1f5a:	80 95       	com	r24
    1f5c:	70 95       	com	r23
    1f5e:	61 95       	neg	r22
    1f60:	7f 4f       	sbci	r23, 0xFF	; 255
    1f62:	8f 4f       	sbci	r24, 0xFF	; 255
    1f64:	9f 4f       	sbci	r25, 0xFF	; 255
/home/admin/Arduino/toolchain-avr-special-master/gcc-build/avr/avrxmega3/short-calls/libgcc/../../../../../gcc/libgcc/config/avr/lib1funcs.S:1719
    1f66:	08 95       	ret

00001f68 <__muluhisi3>:
__muluhisi3():
/home/admin/Arduino/toolchain-avr-special-master/gcc-build/avr/avrxmega3/short-calls/libgcc/../../../../../gcc/libgcc/config/avr/lib1funcs.S:626
    1f68:	0f d0       	rcall	.+30     	; 0x1f88 <__umulhisi3>
/home/admin/Arduino/toolchain-avr-special-master/gcc-build/avr/avrxmega3/short-calls/libgcc/../../../../../gcc/libgcc/config/avr/lib1funcs.S:627
    1f6a:	a5 9f       	mul	r26, r21
/home/admin/Arduino/toolchain-avr-special-master/gcc-build/avr/avrxmega3/short-calls/libgcc/../../../../../gcc/libgcc/config/avr/lib1funcs.S:628
    1f6c:	90 0d       	add	r25, r0
/home/admin/Arduino/toolchain-avr-special-master/gcc-build/avr/avrxmega3/short-calls/libgcc/../../../../../gcc/libgcc/config/avr/lib1funcs.S:629
    1f6e:	b4 9f       	mul	r27, r20
/home/admin/Arduino/toolchain-avr-special-master/gcc-build/avr/avrxmega3/short-calls/libgcc/../../../../../gcc/libgcc/config/avr/lib1funcs.S:630
    1f70:	90 0d       	add	r25, r0
/home/admin/Arduino/toolchain-avr-special-master/gcc-build/avr/avrxmega3/short-calls/libgcc/../../../../../gcc/libgcc/config/avr/lib1funcs.S:631
    1f72:	a4 9f       	mul	r26, r20
/home/admin/Arduino/toolchain-avr-special-master/gcc-build/avr/avrxmega3/short-calls/libgcc/../../../../../gcc/libgcc/config/avr/lib1funcs.S:632
    1f74:	80 0d       	add	r24, r0
/home/admin/Arduino/toolchain-avr-special-master/gcc-build/avr/avrxmega3/short-calls/libgcc/../../../../../gcc/libgcc/config/avr/lib1funcs.S:633
    1f76:	91 1d       	adc	r25, r1
/home/admin/Arduino/toolchain-avr-special-master/gcc-build/avr/avrxmega3/short-calls/libgcc/../../../../../gcc/libgcc/config/avr/lib1funcs.S:634
    1f78:	11 24       	eor	r1, r1
/home/admin/Arduino/toolchain-avr-special-master/gcc-build/avr/avrxmega3/short-calls/libgcc/../../../../../gcc/libgcc/config/avr/lib1funcs.S:635
    1f7a:	08 95       	ret

00001f7c <__tablejump2__>:
__tablejump2__():
/home/admin/Arduino/toolchain-avr-special-master/gcc-build/avr/avrxmega3/short-calls/libgcc/../../../../../gcc/libgcc/config/avr/lib1funcs.S:2296
    1f7c:	ee 0f       	add	r30, r30
/home/admin/Arduino/toolchain-avr-special-master/gcc-build/avr/avrxmega3/short-calls/libgcc/../../../../../gcc/libgcc/config/avr/lib1funcs.S:2297
    1f7e:	ff 1f       	adc	r31, r31
/home/admin/Arduino/toolchain-avr-special-master/gcc-build/avr/avrxmega3/short-calls/libgcc/../../../../../gcc/libgcc/config/avr/lib1funcs.S:2328
    1f80:	05 90       	lpm	r0, Z+
/home/admin/Arduino/toolchain-avr-special-master/gcc-build/avr/avrxmega3/short-calls/libgcc/../../../../../gcc/libgcc/config/avr/lib1funcs.S:2329
    1f82:	f4 91       	lpm	r31, Z
/home/admin/Arduino/toolchain-avr-special-master/gcc-build/avr/avrxmega3/short-calls/libgcc/../../../../../gcc/libgcc/config/avr/lib1funcs.S:2330
    1f84:	e0 2d       	mov	r30, r0
/home/admin/Arduino/toolchain-avr-special-master/gcc-build/avr/avrxmega3/short-calls/libgcc/../../../../../gcc/libgcc/config/avr/lib1funcs.S:2331
    1f86:	09 94       	ijmp

00001f88 <__umulhisi3>:
__umulhisi3():
/home/admin/Arduino/toolchain-avr-special-master/gcc-build/avr/avrxmega3/short-calls/libgcc/../../../../../gcc/libgcc/config/avr/lib1funcs.S:564
    1f88:	a2 9f       	mul	r26, r18
/home/admin/Arduino/toolchain-avr-special-master/gcc-build/avr/avrxmega3/short-calls/libgcc/../../../../../gcc/libgcc/config/avr/lib1funcs.S:565
    1f8a:	b0 01       	movw	r22, r0
/home/admin/Arduino/toolchain-avr-special-master/gcc-build/avr/avrxmega3/short-calls/libgcc/../../../../../gcc/libgcc/config/avr/lib1funcs.S:566
    1f8c:	b3 9f       	mul	r27, r19
/home/admin/Arduino/toolchain-avr-special-master/gcc-build/avr/avrxmega3/short-calls/libgcc/../../../../../gcc/libgcc/config/avr/lib1funcs.S:567
    1f8e:	c0 01       	movw	r24, r0
/home/admin/Arduino/toolchain-avr-special-master/gcc-build/avr/avrxmega3/short-calls/libgcc/../../../../../gcc/libgcc/config/avr/lib1funcs.S:568
    1f90:	a3 9f       	mul	r26, r19
/home/admin/Arduino/toolchain-avr-special-master/gcc-build/avr/avrxmega3/short-calls/libgcc/../../../../../gcc/libgcc/config/avr/lib1funcs.S:578
    1f92:	01 d0       	rcall	.+2      	; 0x1f96 <__umulhisi3+0xe>
/home/admin/Arduino/toolchain-avr-special-master/gcc-build/avr/avrxmega3/short-calls/libgcc/../../../../../gcc/libgcc/config/avr/lib1funcs.S:580
    1f94:	b2 9f       	mul	r27, r18
/home/admin/Arduino/toolchain-avr-special-master/gcc-build/avr/avrxmega3/short-calls/libgcc/../../../../../gcc/libgcc/config/avr/lib1funcs.S:581
    1f96:	70 0d       	add	r23, r0
/home/admin/Arduino/toolchain-avr-special-master/gcc-build/avr/avrxmega3/short-calls/libgcc/../../../../../gcc/libgcc/config/avr/lib1funcs.S:582
    1f98:	81 1d       	adc	r24, r1
/home/admin/Arduino/toolchain-avr-special-master/gcc-build/avr/avrxmega3/short-calls/libgcc/../../../../../gcc/libgcc/config/avr/lib1funcs.S:583
    1f9a:	11 24       	eor	r1, r1
/home/admin/Arduino/toolchain-avr-special-master/gcc-build/avr/avrxmega3/short-calls/libgcc/../../../../../gcc/libgcc/config/avr/lib1funcs.S:584
    1f9c:	91 1d       	adc	r25, r1
/home/admin/Arduino/toolchain-avr-special-master/gcc-build/avr/avrxmega3/short-calls/libgcc/../../../../../gcc/libgcc/config/avr/lib1funcs.S:585
    1f9e:	08 95       	ret

00001fa0 <_exit>:
exit():
/home/admin/Arduino/toolchain-avr-special-master/gcc-build/avr/avrxmega3/short-calls/libgcc/../../../../../gcc/libgcc/config/avr/lib1funcs.S:2278
    1fa0:	f8 94       	cli

00001fa2 <__stop_program>:
__stop_program():
/home/admin/Arduino/toolchain-avr-special-master/gcc-build/avr/avrxmega3/short-calls/libgcc/../../../../../gcc/libgcc/config/avr/lib1funcs.S:2280
    1fa2:	ff cf       	rjmp	.-2      	; 0x1fa2 <__stop_program>
